
lrf_v221116.elf:     file format elf32-littlenios2
lrf_v221116.elf
architecture: nios2, flags 0x00000112:
EXEC_P, HAS_SYMS, D_PAGED
start address 0x000001b8

Program Header:
    LOAD off    0x00001000 vaddr 0x00000000 paddr 0x00000000 align 2**12
         filesz 0x00000020 memsz 0x00000020 flags r-x
    LOAD off    0x00001020 vaddr 0x00000020 paddr 0x00000020 align 2**12
         filesz 0x00005af8 memsz 0x00005af8 flags r-x
    LOAD off    0x00006b18 vaddr 0x00005b18 paddr 0x000061d0 align 2**12
         filesz 0x000006b8 memsz 0x000006b8 flags rw-
    LOAD off    0x00007888 vaddr 0x00006888 paddr 0x00006888 align 2**12
         filesz 0x00000000 memsz 0x00000b0c flags rw-

Sections:
Idx Name          Size      VMA       LMA       File off  Algn
  0 .entry        00000020  00000000  00000000  00001000  2**5
                  CONTENTS, ALLOC, LOAD, READONLY, CODE
  1 .exceptions   00000198  00000020  00000020  00001020  2**2
                  CONTENTS, ALLOC, LOAD, READONLY, CODE
  2 .text         00005804  000001b8  000001b8  000011b8  2**2
                  CONTENTS, ALLOC, LOAD, READONLY, CODE
  3 .rodata       0000015c  000059bc  000059bc  000069bc  2**2
                  CONTENTS, ALLOC, LOAD, READONLY, DATA
  4 .rwdata       000006b8  00005b18  000061d0  00006b18  2**2
                  CONTENTS, ALLOC, LOAD, DATA, SMALL_DATA
  5 .bss          00000b0c  00006888  00006888  00007888  2**2
                  ALLOC, SMALL_DATA
  6 .comment      00000023  00000000  00000000  000071d0  2**0
                  CONTENTS, READONLY
  7 .debug_aranges 00000b58  00000000  00000000  000071f8  2**3
                  CONTENTS, READONLY, DEBUGGING
  8 .debug_info   000105a4  00000000  00000000  00007d50  2**0
                  CONTENTS, READONLY, DEBUGGING
  9 .debug_abbrev 000068ef  00000000  00000000  000182f4  2**0
                  CONTENTS, READONLY, DEBUGGING
 10 .debug_line   0000507f  00000000  00000000  0001ebe3  2**0
                  CONTENTS, READONLY, DEBUGGING
 11 .debug_frame  00001400  00000000  00000000  00023c64  2**2
                  CONTENTS, READONLY, DEBUGGING
 12 .debug_str    00002a08  00000000  00000000  00025064  2**0
                  CONTENTS, READONLY, DEBUGGING
 13 .debug_loc    00005fa8  00000000  00000000  00027a6c  2**0
                  CONTENTS, READONLY, DEBUGGING
 14 .debug_alt_sim_info 00000030  00000000  00000000  0002da14  2**2
                  CONTENTS, READONLY, DEBUGGING
 15 .debug_ranges 00000570  00000000  00000000  0002da48  2**3
                  CONTENTS, READONLY, DEBUGGING
 16 .thread_model 00000003  00000000  00000000  00030f5c  2**0
                  CONTENTS, READONLY
 17 .cpu          00000003  00000000  00000000  00030f5f  2**0
                  CONTENTS, READONLY
 18 .qsys         00000001  00000000  00000000  00030f62  2**0
                  CONTENTS, READONLY
 19 .simulation_enabled 00000001  00000000  00000000  00030f63  2**0
                  CONTENTS, READONLY
 20 .sysid_hash   00000004  00000000  00000000  00030f64  2**0
                  CONTENTS, READONLY
 21 .sysid_base   00000004  00000000  00000000  00030f68  2**0
                  CONTENTS, READONLY
 22 .sysid_time   00000004  00000000  00000000  00030f6c  2**0
                  CONTENTS, READONLY
 23 .stderr_dev   00000007  00000000  00000000  00030f70  2**0
                  CONTENTS, READONLY
 24 .stdin_dev    00000007  00000000  00000000  00030f77  2**0
                  CONTENTS, READONLY
 25 .stdout_dev   00000007  00000000  00000000  00030f7e  2**0
                  CONTENTS, READONLY
 26 .sopc_system_name 00000010  00000000  00000000  00030f85  2**0
                  CONTENTS, READONLY
 27 .quartus_project_dir 0000002f  00000000  00000000  00030f95  2**0
                  CONTENTS, READONLY
 28 .sopcinfo     000da530  00000000  00000000  00030fc4  2**0
                  CONTENTS, READONLY
SYMBOL TABLE:
00000000 l    d  .entry	00000000 .entry
00000020 l    d  .exceptions	00000000 .exceptions
000001b8 l    d  .text	00000000 .text
000059bc l    d  .rodata	00000000 .rodata
00005b18 l    d  .rwdata	00000000 .rwdata
00006888 l    d  .bss	00000000 .bss
00000000 l    d  .comment	00000000 .comment
00000000 l    d  .debug_aranges	00000000 .debug_aranges
00000000 l    d  .debug_info	00000000 .debug_info
00000000 l    d  .debug_abbrev	00000000 .debug_abbrev
00000000 l    d  .debug_line	00000000 .debug_line
00000000 l    d  .debug_frame	00000000 .debug_frame
00000000 l    d  .debug_str	00000000 .debug_str
00000000 l    d  .debug_loc	00000000 .debug_loc
00000000 l    d  .debug_alt_sim_info	00000000 .debug_alt_sim_info
00000000 l    d  .debug_ranges	00000000 .debug_ranges
00000000 l    df *ABS*	00000000 ../lrf_v221116_bsp//obj/HAL/src/crt0.o
00000200 l       .text	00000000 alt_after_alt_main
00000000 l    df *ABS*	00000000 alt_exception_entry.o
00000094 l       .exceptions	00000000 alt_exception_unknown
00000000 l    df *ABS*	00000000 alt_irq_handler.c
00000000 l    df *ABS*	00000000 ad8369.c
00000000 l    df *ABS*	00000000 laser_driver.c
00000000 l    df *ABS*	00000000 main.c
00000000 l    df *ABS*	00000000 max1932.c
00000000 l    df *ABS*	00000000 motors.c
00000000 l    df *ABS*	00000000 pc_com.c
00000618 l     F .text	00000050 uart_rx_interrupt_handler
00000000 l    df *ABS*	00000000 pulse_generator.c
00000000 l    df *ABS*	00000000 rangefinder.c
00000000 l    df *ABS*	00000000 sample_loader.c
00000000 l    df *ABS*	00000000 spi_controller.c
00000000 l    df *ABS*	00000000 stepper_controller.c
00000000 l    df *ABS*	00000000 tdc7200.c
00000000 l    df *ABS*	00000000 time.c
00000000 l    df *ABS*	00000000 uart.c
00000000 l    df *ABS*	00000000 w_sqrt.c
00000000 l    df *ABS*	00000000 e_sqrt.c
00000000 l    df *ABS*	00000000 s_isnand.c
00000000 l    df *ABS*	00000000 s_lib_ver.c
00000000 l    df *ABS*	00000000 s_matherr.c
00000000 l    df *ABS*	00000000 libgcc2.c
00000000 l    df *ABS*	00000000 fp-bit.c
00001e04 l     F .text	000001f4 _fpadd_parts
00000000 l    df *ABS*	00000000 fp-bit.c
00000000 l    df *ABS*	00000000 fp-bit.c
00000000 l    df *ABS*	00000000 fp-bit.c
00000000 l    df *ABS*	00000000 fp-bit.c
00000000 l    df *ABS*	00000000 fp-bit.c
00000000 l    df *ABS*	00000000 fp-bit.c
00002360 l     F .text	00000354 _fpadd_parts
00000000 l    df *ABS*	00000000 fp-bit.c
00000000 l    df *ABS*	00000000 fp-bit.c
00000000 l    df *ABS*	00000000 fp-bit.c
00000000 l    df *ABS*	00000000 fp-bit.c
00000000 l    df *ABS*	00000000 fp-bit.c
00000000 l    df *ABS*	00000000 fp-bit.c
00000000 l    df *ABS*	00000000 fp-bit.c
00000000 l    df *ABS*	00000000 lib2-divmod.c
00002dc8 l     F .text	00000074 udivmodsi4
00000000 l    df *ABS*	00000000 libgcc2.c
00000000 l    df *ABS*	00000000 libgcc2.c
00000000 l    df *ABS*	00000000 fp-bit.c
00000000 l    df *ABS*	00000000 fp-bit.c
00000000 l    df *ABS*	00000000 fp-bit.c
00000000 l    df *ABS*	00000000 fp-bit.c
00000000 l    df *ABS*	00000000 fp-bit.c
00000000 l    df *ABS*	00000000 fp-bit.c
00000000 l    df *ABS*	00000000 fp-bit.c
00000000 l    df *ABS*	00000000 libgcc2.c
00000000 l    df *ABS*	00000000 libgcc2.c
00000000 l    df *ABS*	00000000 libgcc2.c
00000000 l    df *ABS*	00000000 errno.c
00000000 l    df *ABS*	00000000 impure.c
00005b24 l     O .rwdata	00000400 impure_data
00000000 l    df *ABS*	00000000 memcpy.c
00000000 l    df *ABS*	00000000 memset.c
00000000 l    df *ABS*	00000000 alt_alarm_start.c
00000000 l    df *ABS*	00000000 alt_iic.c
00000000 l    df *ABS*	00000000 alt_iic_isr_register.c
00000000 l    df *ABS*	00000000 alt_irq_vars.c
00000000 l    df *ABS*	00000000 alt_load.c
00003d4c l     F .text	0000006c alt_load_section
00000000 l    df *ABS*	00000000 alt_main.c
00000000 l    df *ABS*	00000000 alt_tick.c
00000000 l    df *ABS*	00000000 alt_sys_init.c
0000404c l     F .text	00000038 alt_dev_reg
00005f24 l     O .rwdata	000000c4 pc_uart
00000000 l    df *ABS*	00000000 altera_avalon_timer_sc.c
00004114 l     F .text	00000074 alt_avalon_timer_sc_irq
00000000 l    df *ABS*	00000000 altera_avalon_uart_fd.c
00000000 l    df *ABS*	00000000 altera_avalon_uart_init.c
000043c8 l     F .text	00000098 altera_avalon_uart_irq
00004460 l     F .text	000000d8 altera_avalon_uart_rxirq
00004538 l     F .text	0000013c altera_avalon_uart_txirq
00000000 l    df *ABS*	00000000 altera_avalon_uart_read.c
000046c8 l     F .text	00000050 alt_get_errno
00000000 l    df *ABS*	00000000 altera_avalon_uart_write.c
000048f8 l     F .text	00000050 alt_get_errno
00000000 l    df *ABS*	00000000 alt_close.c
00004af0 l     F .text	00000050 alt_get_errno
00000000 l    df *ABS*	00000000 alt_dcache_flush_all.c
00000000 l    df *ABS*	00000000 alt_dev.c
00004c4c l     F .text	0000002c alt_dev_null_write
00000000 l    df *ABS*	00000000 alt_dev_llist_insert.c
00004c78 l     F .text	00000050 alt_get_errno
00000000 l    df *ABS*	00000000 alt_do_ctors.c
00000000 l    df *ABS*	00000000 alt_do_dtors.c
00000000 l    df *ABS*	00000000 alt_errno.c
00000000 l    df *ABS*	00000000 alt_icache_flush_all.c
00000000 l    df *ABS*	00000000 alt_io_redirect.c
00004e50 l     F .text	000000c0 alt_open_fd
00000000 l    df *ABS*	00000000 alt_open.c
00004f88 l     F .text	00000050 alt_get_errno
00004fd8 l     F .text	000000cc alt_file_locked
00000000 l    df *ABS*	00000000 alt_release_fd.c
00000000 l    df *ABS*	00000000 altera_nios2_qsys_irq.c
00000000 l    df *ABS*	00000000 alt_find_dev.c
00000000 l    df *ABS*	00000000 alt_find_file.c
00000000 l    df *ABS*	00000000 alt_get_fd.c
00000000 l    df *ABS*	00000000 alt_icache_flush.c
00000000 l    df *ABS*	00000000 atexit.c
00000000 l    df *ABS*	00000000 exit.c
00000000 l    df *ABS*	00000000 int_errno.c
00000000 l    df *ABS*	00000000 memcmp.c
00000000 l    df *ABS*	00000000 strlen.c
00000000 l    df *ABS*	00000000 __atexit.c
00000000 l    df *ABS*	00000000 __call_atexit.c
00000000 l    df *ABS*	00000000 alt_exit.c
00000000 l    df *ABS*	00000000 
00003e38 g     F .text	00000078 alt_main
0000371c g     F .text	00000044 __ashldi3
00007104 g     O .bss	00000100 alt_irq
00001954 g     F .text	00000148 sqrt
000061d0 g       *ABS*	00000000 __flash_rwdata_start
00000000 g       *ABS*	00000000 __alt_mem_ram_cpu
000007a8 g     F .text	0000003c send_message2pc
00006889 g     O .bss	00000001 current_voltage
00001318 g     F .text	00000018 get_sample
00002288 g     F .text	00000094 __fixsfsi
00009200 g       *ABS*	00000000 __alt_mem_ram_sample_3
00003760 g     F .text	00000010 __errno
0000695c g     O .bss	00000024 test_pulses
00000000 g     F .entry	0000001c __reset
00000020 g       *ABS*	00000000 __flash_exceptions_start
00000388 g     F .text	00000030 set_APD_ref_source
000070d8 g     O .bss	00000014 tdc_results
000068c0 g     O .bss	00000004 errno
00002d30 g     F .text	00000038 __make_dp
000032b4 g     F .text	0000002c __make_fp
000068b0 g     O .bss	00000004 alt_argv
0000e190 g       *ABS*	00000000 _gp
00002044 g     F .text	00000058 __subsf3
000006fc g     F .text	00000058 integrity_check
00006010 g     O .rwdata	00000180 alt_fd_list
00000b5c g     F .text	00000068 init_pulse_generator
00006892 g     O .bss	00000001 current_amp_gain
00005278 g     F .text	00000090 alt_find_dev
00003770 g     F .text	000000f8 memcpy
00002c5c g     F .text	000000d4 __floatsidf
00006888 g     O .bss	00000001 current_vga_gain
00004f10 g     F .text	00000078 alt_io_redirect
00002c00 g     F .text	0000005c __ltdf2
00000304 g     F .text	00000028 sys_init
000059bc g       *ABS*	00000000 __DTOR_END__
00000c1c g     F .text	00000054 ProcCmd_PulseGen
000070ec g     O .bss	00000018 ts
00009500 g       *ABS*	00000000 __alt_mem_ram_sample_0
00000484 g     F .text	00000194 ProcCmd_Motor
00006897 g     O .bss	00000001 next_state
00000000  w      *UND*	00000000 malloc
00002ee8 g     F .text	00000008 __udivsi3
00006194 g     O .rwdata	00000001 noise_toler
00000f48 g     F .text	00000108 photodetector_calibrating_routine
00000754 g     F .text	00000030 calculate_crc
00001050 g     F .text	00000018 start_sample_record
000054d0 g     F .text	0000008c alt_icache_flush
000016a0 g     F .text	00000068 Init_TDC7200
00001708 g     F .text	0000003c tdc_start_measure
000061c8 g     O .rwdata	00000004 alt_max_fd
00003504 g     F .text	00000104 __unpack_d
00000cfc g     F .text	000001b4 compute_rms
00009400 g       *ABS*	00000000 __alt_mem_ram_sample_1
000002a4 g     F .text	0000001c generate_pulse
00000bc4 g     F .text	00000058 generate_test_pulses
0000231c g     F .text	00000044 __extendsfdf2
00001470 g     F .text	0000000c reset_position
000026b4 g     F .text	00000054 __adddf3
000068c4 g     O .bss	00000098 com
000061a0 g     O .rwdata	00000004 __fdlib_version
000061a4 g     O .rwdata	00000004 _global_impure_ptr
00007394 g       *ABS*	00000000 __bss_end
00003c5c g     F .text	000000f0 alt_iic_isr_register
00003f48 g     F .text	00000104 alt_tick
00004320 g     F .text	000000a8 altera_avalon_uart_init
00003c10 g     F .text	0000004c alt_ic_irq_enabled
00006898 g     O .bss	00000001 state
00003eb0 g     F .text	00000098 alt_alarm_stop
000068a8 g     O .bss	00000004 alt_irq_active
000068a0 g     O .bss	00000004 sys_timer_context
00001534 g     F .text	0000003c read_32bword_from_tdc
00000b50 g     F .text	0000000c com_routine
000000ec g     F .exceptions	000000cc alt_irq_handler
00005fe8 g     O .rwdata	00000028 alt_dev_null
00006190 g     O .rwdata	00000004 uart_context_ptr
0000032c g     F .text	00000044 mainloop
00003130 g     F .text	000000c8 __unpack_f
000003c8 g     F .text	00000024 open_drive
00004c08 g     F .text	00000044 alt_dcache_flush_all
000061d0 g       *ABS*	00000000 __ram_rwdata_end
0000040c g     F .text	00000018 stop_drive
000061c0 g     O .rwdata	00000008 alt_dev_list
00001924 g     F .text	00000028 timers_init
00000234 g     F .text	00000010 ProcCmd_VGA
00005b18 g       *ABS*	00000000 __ram_rodata_end
000036d8 g     F .text	00000044 __lshrdi3
00006197 g     O .rwdata	00000001 filter_size
00002ef0 g     F .text	00000008 __umodsi3
00007394 g       *ABS*	00000000 end
00003004 g     F .text	0000012c __pack_f
00004948 g     F .text	000001a8 altera_avalon_uart_write
00000204 g     F .text	00000030 set_VGA_gain
000059bc g       *ABS*	00000000 __CTOR_LIST__
00008000 g       *ABS*	00000000 __alt_stack_pointer
00004188 g     F .text	00000088 alt_avalon_timer_sc_init
00004270 g     F .text	00000060 altera_avalon_uart_write_fd
00002f58 g     F .text	000000ac __clzsi2
000042d0 g     F .text	00000050 altera_avalon_uart_close_fd
00000cf0 g     F .text	0000000c calibrate_photodetector
000003b8 g     F .text	00000010 ProcCmd_APD
00000834 g     F .text	0000000c com_init
000057e0 g     F .text	000001a0 __call_exitprocs
000001b8 g     F .text	0000004c _start
00006893 g     O .bss	00000001 record_delay_cnt
000068b8 g     O .bss	00000004 _alt_tick_rate
00000804 g     F .text	00000030 msg_crc
00006198 g     O .rwdata	00000004 time_flags
00001330 g     F .text	000000e4 send_spi_word
000068bc g     O .bss	00000004 _alt_nticks
00006980 g     O .bss	00000628 signal
000040b8 g     F .text	0000005c alt_sys_init
00006fa8 g     O .bss	00000100 selected_sample
000056b0 g     F .text	00000130 __register_exitproc
00000244 g     F .text	00000020 generate_laser_pulse
00001440 g     F .text	00000028 move_on_distance
0000619c g     O .rwdata	00000004 sys_timer_context_ptr
0000164c g     F .text	00000054 TDC7200_reg_init
00005b18 g       *ABS*	00000000 __ram_rwdata_start
000059bc g       *ABS*	00000000 __ram_rodata_start
000007e4 g     F .text	00000020 set_rs485_driver_dir
00000784 g     F .text	00000024 send_byte_by_uart
0000541c g     F .text	000000b4 alt_get_fd
0000046c g     F .text	00000018 reset_drive_position
00003608 g     F .text	000000d0 __fpcmp_parts_d
0000069c g     F .text	00000060 rs485_init
000068a4 g     O .bss	00000004 tflags
000055a8 g     F .text	0000007c memcmp
00006195 g     O .rwdata	00000001 noise_rms_dest
00007394 g       *ABS*	00000000 __alt_stack_base
000010b4 g     F .text	000000bc send_sample
00000950 g     F .text	00000200 rs485_routine
00002a4c g     F .text	000001b4 __divdf3
0000160c g     F .text	00000040 tdc7200_reset
00000454 g     F .text	00000018 drive_pos
00002768 g     F .text	000002e4 __muldf3
000070a8 g     O .bss	00000030 ram_data
000059c4 g     O .rodata	00000010 __thenan_sf
00001744 g     F .text	0000005c tdc_stop_measure
00005308 g     F .text	00000114 alt_find_file
000012d0 g     F .text	00000048 ProcCmd_SampleLoader
00004cc8 g     F .text	000000a0 alt_dev_llist_insert
00006896 g     O .bss	00000001 sample_ready
00000424 g     F .text	00000030 drive_change_pos
000017a0 g     F .text	00000150 ProcCmd_TDC
00006888 g       *ABS*	00000000 __bss_start
00003868 g     F .text	000000dc memset
00000370 g     F .text	00000018 main
00000840 g     F .text	00000094 send_cmd2pc
000068b4 g     O .bss	00000004 alt_envp
00001590 g     F .text	0000007c tdc_pause
00000c70 g     F .text	00000080 ProcCmd_Rangefinder
00000668 g     F .text	00000034 register_uart_interrupt
00001074 g     F .text	00000040 reset_ram_buffers
00001d8c g     F .text	00000008 matherr
00002d68 g     F .text	00000060 __truncdfsf2
00006196 g     O .rwdata	00000001 half_filter
00007204 g     O .bss	00000190 _atexit0
00006895 g     O .bss	00000001 rms_ready
000061cc g     O .rwdata	00000004 alt_errno
00009300 g       *ABS*	00000000 __alt_mem_ram_sample_2
00002e3c g     F .text	00000050 __divsi3
000059d4 g     O .rodata	00000014 __thenan_df
000059bc g       *ABS*	00000000 __CTOR_END__
0000209c g     F .text	00000190 __mulsf3
000059bc g       *ABS*	00000000 __flash_rodata_start
000059bc g       *ABS*	00000000 __DTOR_LIST__
00006899 g     O .bss	00000001 G_noise_rms
00004084 g     F .text	00000034 alt_irq_init
000051f8 g     F .text	00000060 alt_release_fd
00000eb0 g     F .text	00000098 calibrating_iteration
000059e8 g     O .rodata	00000100 __clz_tab
0000555c g     F .text	00000014 atexit
0000222c g     F .text	0000005c __gesf2
000061a8 g     O .rwdata	00000004 _impure_ptr
0000147c g     F .text	00000044 write_16bword_to_tdc
000068ac g     O .bss	00000004 alt_argc
00004dc4 g     F .text	0000005c _do_dtors
00006890 g     O .bss	00000002 iteration_cnt
00000020 g       .exceptions	00000000 alt_irq_entry
00006894 g     O .bss	00000001 calibrating_complete
000061b8 g     O .rwdata	00000008 alt_fs_list
00000284 g     F .text	00000020 generate_tdc_start_pulse
00009100 g       *ABS*	00000000 __alt_mem_ram_sample_4
0000689c g     O .bss	00000004 sys_abs_time_ms
00000020 g       *ABS*	00000000 __ram_exceptions_start
00001468 g     F .text	00000008 current_pos
00001a9c g     F .text	000002c4 __ieee754_sqrt
00001570 g     F .text	00000020 set_tdc_chip_enable
000018f0 g     F .text	00000018 alarm_handler
00003a84 g     F .text	00000050 alt_ic_isr_register
000061d0 g       *ABS*	00000000 _edata
00001414 g     F .text	00000024 start_moving
00004210 g     F .text	00000060 altera_avalon_uart_read_fd
00007394 g       *ABS*	00000000 _end
000008d4 g     F .text	0000007c command_handler
000001b8 g       *ABS*	00000000 __ram_exceptions_end
000002c0 g     F .text	00000044 ProcCmd_Laser
00003b70 g     F .text	000000a0 alt_ic_irq_disable
00005258 g     F .text	00000020 altera_nios2_qsys_irq_init
00005570 g     F .text	00000038 exit
00005b18 g     O .rwdata	0000000a TDC7200_reg_local_copy
000014f0 g     F .text	00000044 write_32bword_to_tdc
00002e8c g     F .text	0000005c __modsi3
00008000 g       *ABS*	00000000 __alt_data_end
00000020 g     F .exceptions	00000000 alt_exception
00004674 g     F .text	00000054 altera_avalon_uart_close
00001d94 g     F .text	00000070 __fixunssfsi
000031f8 g     F .text	000000bc __fpcmp_parts_f
000014c0 g     F .text	00000030 read_16bword_from_tdc
00005980 g     F .text	0000003c _exit
00001d60 g     F .text	0000002c __isnand
00003944 g     F .text	00000140 alt_alarm_start
00002ef8 g     F .text	00000060 __muldi3
00005624 g     F .text	0000008c strlen
000050a4 g     F .text	00000154 open
00001908 g     F .text	0000001c register_sys_timer_interrupt
000003ec g     F .text	00000020 close_drive
00000264 g     F .text	00000020 generate_charge_pulse
00004e20 g     F .text	00000030 alt_icache_flush_all
000061ac g     O .rwdata	00000004 alt_priority_mask
00009000 g       *ABS*	00000000 __alt_mem_ram_sample_5
00003ad4 g     F .text	0000009c alt_ic_irq_enable
00001170 g     F .text	00000160 refresh_meas_data
00004718 g     F .text	000001e0 altera_avalon_uart_read
00002708 g     F .text	00000060 __subdf3
00001438 g     F .text	00000008 stop_moving
000061b0 g     O .rwdata	00000008 alt_alarm_list
00004d68 g     F .text	0000005c _do_ctors
00001068 g     F .text	0000000c stop_sample_record
00004b40 g     F .text	000000c8 close
00001ff8 g     F .text	0000004c __addsf3
0000194c g     F .text	00000008 sys_timer_flags
0000688c g     O .bss	00000004 uart_context
00003db8 g     F .text	00000080 alt_load
000032e0 g     F .text	00000224 __pack_d
00000000  w      *UND*	00000000 free



Disassembly of section .entry:

00000000 <__reset>:
   0:	00840014 	movui	r2,4096
   4:	1001483a 	initi	r2
   8:	10bff804 	addi	r2,r2,-32
   c:	00bffd16 	blt	zero,r2,4 <_gp+0xffff1e74>
  10:	00400034 	movhi	at,0
  14:	08406e14 	ori	at,at,440
  18:	0800683a 	jmp	at
  1c:	00000000 	call	0 <__reset>

Disassembly of section .exceptions:

00000020 <alt_exception>:
  20:	deffed04 	addi	sp,sp,-76
  24:	dfc00015 	stw	ra,0(sp)
  28:	d8400215 	stw	at,8(sp)
  2c:	d8800315 	stw	r2,12(sp)
  30:	d8c00415 	stw	r3,16(sp)
  34:	d9000515 	stw	r4,20(sp)
  38:	d9400615 	stw	r5,24(sp)
  3c:	d9800715 	stw	r6,28(sp)
  40:	d9c00815 	stw	r7,32(sp)
  44:	000b307a 	rdctl	r5,estatus
  48:	da000915 	stw	r8,36(sp)
  4c:	da400a15 	stw	r9,40(sp)
  50:	da800b15 	stw	r10,44(sp)
  54:	dac00c15 	stw	r11,48(sp)
  58:	db000d15 	stw	r12,52(sp)
  5c:	db400e15 	stw	r13,56(sp)
  60:	db800f15 	stw	r14,60(sp)
  64:	dbc01015 	stw	r15,64(sp)
  68:	d9401115 	stw	r5,68(sp)
  6c:	ebffff04 	addi	r15,ea,-4
  70:	dbc01215 	stw	r15,72(sp)
  74:	0009313a 	rdctl	r4,ipending
  78:	2880004c 	andi	r2,r5,1
  7c:	10000326 	beq	r2,zero,8c <alt_exception+0x6c>
  80:	20000226 	beq	r4,zero,8c <alt_exception+0x6c>
  84:	00000ec0 	call	ec <alt_irq_handler>
  88:	00000306 	br	98 <alt_exception_unknown+0x4>
  8c:	df401215 	stw	ea,72(sp)
  90:	e8bfff17 	ldw	r2,-4(ea)

00000094 <alt_exception_unknown>:
  94:	003da03a 	break	0
  98:	d9401117 	ldw	r5,68(sp)
  9c:	df401217 	ldw	ea,72(sp)
  a0:	dfc00017 	ldw	ra,0(sp)
  a4:	2801707a 	wrctl	estatus,r5
  a8:	d8400217 	ldw	at,8(sp)
  ac:	d8800317 	ldw	r2,12(sp)
  b0:	d8c00417 	ldw	r3,16(sp)
  b4:	d9000517 	ldw	r4,20(sp)
  b8:	d9400617 	ldw	r5,24(sp)
  bc:	d9800717 	ldw	r6,28(sp)
  c0:	d9c00817 	ldw	r7,32(sp)
  c4:	da000917 	ldw	r8,36(sp)
  c8:	da400a17 	ldw	r9,40(sp)
  cc:	da800b17 	ldw	r10,44(sp)
  d0:	dac00c17 	ldw	r11,48(sp)
  d4:	db000d17 	ldw	r12,52(sp)
  d8:	db400e17 	ldw	r13,56(sp)
  dc:	db800f17 	ldw	r14,60(sp)
  e0:	dbc01017 	ldw	r15,64(sp)
  e4:	dec01304 	addi	sp,sp,76
  e8:	ef80083a 	eret

000000ec <alt_irq_handler>:
  ec:	defff904 	addi	sp,sp,-28
  f0:	dfc00615 	stw	ra,24(sp)
  f4:	df000515 	stw	fp,20(sp)
  f8:	df000504 	addi	fp,sp,20
  fc:	0001883a 	nop
 100:	0005313a 	rdctl	r2,ipending
 104:	e0bffe15 	stw	r2,-8(fp)
 108:	e0bffe17 	ldw	r2,-8(fp)
 10c:	e0bffb15 	stw	r2,-20(fp)
 110:	e03ffd15 	stw	zero,-12(fp)
 114:	00800044 	movi	r2,1
 118:	e0bffc15 	stw	r2,-16(fp)
 11c:	e0fffb17 	ldw	r3,-20(fp)
 120:	e0bffc17 	ldw	r2,-16(fp)
 124:	1884703a 	and	r2,r3,r2
 128:	10001726 	beq	r2,zero,188 <alt_irq_handler+0x9c>
 12c:	00c00034 	movhi	r3,0
 130:	18dc4104 	addi	r3,r3,28932
 134:	e0bffd17 	ldw	r2,-12(fp)
 138:	100490fa 	slli	r2,r2,3
 13c:	1885883a 	add	r2,r3,r2
 140:	10c00017 	ldw	r3,0(r2)
 144:	01000034 	movhi	r4,0
 148:	211c4104 	addi	r4,r4,28932
 14c:	e0bffd17 	ldw	r2,-12(fp)
 150:	100490fa 	slli	r2,r2,3
 154:	2085883a 	add	r2,r4,r2
 158:	10800104 	addi	r2,r2,4
 15c:	10800017 	ldw	r2,0(r2)
 160:	1009883a 	mov	r4,r2
 164:	183ee83a 	callr	r3
 168:	0001883a 	nop
 16c:	0005313a 	rdctl	r2,ipending
 170:	e0bfff15 	stw	r2,-4(fp)
 174:	e0bfff17 	ldw	r2,-4(fp)
 178:	e0bffb15 	stw	r2,-20(fp)
 17c:	e0bffb17 	ldw	r2,-20(fp)
 180:	103fe31e 	bne	r2,zero,110 <_gp+0xffff1f80>
 184:	00000706 	br	1a4 <alt_irq_handler+0xb8>
 188:	e0bffc17 	ldw	r2,-16(fp)
 18c:	1085883a 	add	r2,r2,r2
 190:	e0bffc15 	stw	r2,-16(fp)
 194:	e0bffd17 	ldw	r2,-12(fp)
 198:	10800044 	addi	r2,r2,1
 19c:	e0bffd15 	stw	r2,-12(fp)
 1a0:	003fde06 	br	11c <_gp+0xffff1f8c>
 1a4:	e037883a 	mov	sp,fp
 1a8:	dfc00117 	ldw	ra,4(sp)
 1ac:	df000017 	ldw	fp,0(sp)
 1b0:	dec00204 	addi	sp,sp,8
 1b4:	f800283a 	ret

Disassembly of section .text:

000001b8 <_start>:
     1b8:	00840014 	movui	r2,4096
     1bc:	10000033 	initd	0(r2)
     1c0:	10bff804 	addi	r2,r2,-32
     1c4:	00bffd16 	blt	zero,r2,1bc <_gp+0xffff202c>
     1c8:	06c00034 	movhi	sp,0
     1cc:	dee00014 	ori	sp,sp,32768
     1d0:	06800034 	movhi	gp,0
     1d4:	d6b86414 	ori	gp,gp,57744
     1d8:	00800034 	movhi	r2,0
     1dc:	109a2214 	ori	r2,r2,26760
     1e0:	00c00034 	movhi	r3,0
     1e4:	18dce514 	ori	r3,r3,29588
     1e8:	10c00326 	beq	r2,r3,1f8 <_start+0x40>
     1ec:	10000015 	stw	zero,0(r2)
     1f0:	10800104 	addi	r2,r2,4
     1f4:	10fffd36 	bltu	r2,r3,1ec <_gp+0xffff205c>
     1f8:	0003db80 	call	3db8 <alt_load>
     1fc:	0003e380 	call	3e38 <alt_main>

00000200 <alt_after_alt_main>:
     200:	003fff06 	br	200 <_gp+0xffff2070>

00000204 <set_VGA_gain>:
void set_VGA_gain(unsigned char gain)
{
	unsigned int tx_word = 0;
	unsigned int answer = 0;
	tx_word = gain & 0xF;
	tx_word = tx_word << 28;
     204:	200a973a 	slli	r5,r4,28
	current_vga_gain=cmd->data[0];
	set_VGA_gain(current_vga_gain);
}

void set_VGA_gain(unsigned char gain)
{
     208:	defffd04 	addi	sp,sp,-12
	unsigned int tx_word = 0;
	unsigned int answer = 0;
	tx_word = gain & 0xF;
	tx_word = tx_word << 28;
	answer=send_spi_word(SPI_VGA_BASE,tx_word,VGA_WORD_LEN,VGA_CLK_DIV,VGA_CLK_POL,VGA_CLK_PH);
     20c:	d8000015 	stw	zero,0(sp)
     210:	d8000115 	stw	zero,4(sp)
     214:	0125f814 	movui	r4,38880
     218:	01800104 	movi	r6,4
     21c:	01c00284 	movi	r7,10
	current_vga_gain=cmd->data[0];
	set_VGA_gain(current_vga_gain);
}

void set_VGA_gain(unsigned char gain)
{
     220:	dfc00215 	stw	ra,8(sp)
	unsigned int tx_word = 0;
	unsigned int answer = 0;
	tx_word = gain & 0xF;
	tx_word = tx_word << 28;
	answer=send_spi_word(SPI_VGA_BASE,tx_word,VGA_WORD_LEN,VGA_CLK_DIV,VGA_CLK_POL,VGA_CLK_PH);
     224:	00013300 	call	1330 <send_spi_word>
}
     228:	dfc00217 	ldw	ra,8(sp)
     22c:	dec00304 	addi	sp,sp,12
     230:	f800283a 	ret

00000234 <ProcCmd_VGA>:

void ProcCmd_VGA(t_pc_cmd *cmd);

void ProcCmd_VGA(t_pc_cmd *cmd)
{
	current_vga_gain=cmd->data[0];
     234:	208000c3 	ldbu	r2,3(r4)
	set_VGA_gain(current_vga_gain);
     238:	11003fcc 	andi	r4,r2,255

void ProcCmd_VGA(t_pc_cmd *cmd);

void ProcCmd_VGA(t_pc_cmd *cmd)
{
	current_vga_gain=cmd->data[0];
     23c:	d0a1be05 	stb	r2,-30984(gp)
	set_VGA_gain(current_vga_gain);
     240:	00002041 	jmpi	204 <set_VGA_gain>

00000244 <generate_laser_pulse>:
}

void generate_pulse(unsigned int base, unsigned int tpulse, unsigned int delay, unsigned char mode)
{
	unsigned int buf = 0;
	IOWR(base,PULSE_LENGTH,tpulse);
     244:	00a5c214 	movui	r2,38664
     248:	11000035 	stwio	r4,0(r2)
	IOWR(base,PULSE_DELAY,delay);
     24c:	00a5c314 	movui	r2,38668
     250:	11400035 	stwio	r5,0(r2)
	buf = mode&0x3;
	buf = (buf << 1)|0x1;
	IOWR(base,DRIVER_CONTROL,buf);
     254:	00a5c014 	movui	r2,38656
     258:	00c00144 	movi	r3,5
     25c:	10c00035 	stwio	r3,0(r2)
     260:	f800283a 	ret

00000264 <generate_charge_pulse>:
}

void generate_pulse(unsigned int base, unsigned int tpulse, unsigned int delay, unsigned char mode)
{
	unsigned int buf = 0;
	IOWR(base,PULSE_LENGTH,tpulse);
     264:	00a63a14 	movui	r2,39144
     268:	11000035 	stwio	r4,0(r2)
	IOWR(base,PULSE_DELAY,delay);
     26c:	00a63b14 	movui	r2,39148
     270:	11400035 	stwio	r5,0(r2)
	buf = mode&0x3;
	buf = (buf << 1)|0x1;
	IOWR(base,DRIVER_CONTROL,buf);
     274:	00a63814 	movui	r2,39136
     278:	00c000c4 	movi	r3,3
     27c:	10c00035 	stwio	r3,0(r2)
     280:	f800283a 	ret

00000284 <generate_tdc_start_pulse>:
}

void generate_pulse(unsigned int base, unsigned int tpulse, unsigned int delay, unsigned char mode)
{
	unsigned int buf = 0;
	IOWR(base,PULSE_LENGTH,tpulse);
     284:	00a64214 	movui	r2,39176
     288:	11000035 	stwio	r4,0(r2)
	IOWR(base,PULSE_DELAY,delay);
     28c:	00a64314 	movui	r2,39180
     290:	11400035 	stwio	r5,0(r2)
	buf = mode&0x3;
	buf = (buf << 1)|0x1;
	IOWR(base,DRIVER_CONTROL,buf);
     294:	00a64014 	movui	r2,39168
     298:	00c000c4 	movi	r3,3
     29c:	10c00035 	stwio	r3,0(r2)
     2a0:	f800283a 	ret

000002a4 <generate_pulse>:
}

void generate_pulse(unsigned int base, unsigned int tpulse, unsigned int delay, unsigned char mode)
{
	unsigned int buf = 0;
	IOWR(base,PULSE_LENGTH,tpulse);
     2a4:	21400235 	stwio	r5,8(r4)
	IOWR(base,PULSE_DELAY,delay);
     2a8:	21800335 	stwio	r6,12(r4)
	buf = mode&0x3;
     2ac:	39c000cc 	andi	r7,r7,3
	buf = (buf << 1)|0x1;
     2b0:	39cf883a 	add	r7,r7,r7
     2b4:	39c00054 	ori	r7,r7,1
	IOWR(base,DRIVER_CONTROL,buf);
     2b8:	21c00035 	stwio	r7,0(r4)
     2bc:	f800283a 	ret

000002c0 <ProcCmd_Laser>:

void ProcCmd_Laser(t_pc_cmd* cmd)
{
	unsigned short len = 0;
	unsigned short delay = 0;
	len = cmd->data[1];
     2c0:	20800103 	ldbu	r2,4(r4)
	len = len<<8;
	len|= cmd->data[0];
     2c4:	214000c3 	ldbu	r5,3(r4)
	delay = cmd->data[3];
	delay = len<<8;
	delay|= cmd->data[2];
     2c8:	20c00143 	ldbu	r3,5(r4)
void ProcCmd_Laser(t_pc_cmd* cmd)
{
	unsigned short len = 0;
	unsigned short delay = 0;
	len = cmd->data[1];
	len = len<<8;
     2cc:	1004923a 	slli	r2,r2,8
	len|= cmd->data[0];
     2d0:	1144b03a 	or	r2,r2,r5
	delay = cmd->data[3];
	delay = len<<8;
     2d4:	1008923a 	slli	r4,r2,8
}

void generate_pulse(unsigned int base, unsigned int tpulse, unsigned int delay, unsigned char mode)
{
	unsigned int buf = 0;
	IOWR(base,PULSE_LENGTH,tpulse);
     2d8:	10bfffcc 	andi	r2,r2,65535
	len = cmd->data[1];
	len = len<<8;
	len|= cmd->data[0];
	delay = cmd->data[3];
	delay = len<<8;
	delay|= cmd->data[2];
     2dc:	20c6b03a 	or	r3,r4,r3
}

void generate_pulse(unsigned int base, unsigned int tpulse, unsigned int delay, unsigned char mode)
{
	unsigned int buf = 0;
	IOWR(base,PULSE_LENGTH,tpulse);
     2e0:	0125c214 	movui	r4,38664
     2e4:	20800035 	stwio	r2,0(r4)
	IOWR(base,PULSE_DELAY,delay);
     2e8:	18ffffcc 	andi	r3,r3,65535
     2ec:	00a5c314 	movui	r2,38668
     2f0:	10c00035 	stwio	r3,0(r2)
	buf = mode&0x3;
	buf = (buf << 1)|0x1;
	IOWR(base,DRIVER_CONTROL,buf);
     2f4:	00a5c014 	movui	r2,38656
     2f8:	00c00144 	movi	r3,5
     2fc:	10c00035 	stwio	r3,0(r2)
     300:	f800283a 	ret

00000304 <sys_init>:

void sys_init();
void mainloop();

void sys_init()
{
     304:	deffff04 	addi	sp,sp,-4
     308:	dfc00015 	stw	ra,0(sp)
	timers_init();
     30c:	00019240 	call	1924 <timers_init>
	com_init();
     310:	00008340 	call	834 <com_init>

	set_VGA_gain(plus1db);
     314:	01000084 	movi	r4,2
     318:	00002040 	call	204 <set_VGA_gain>
	init_pulse_generator();
     31c:	0000b5c0 	call	b5c <init_pulse_generator>
	Init_TDC7200();
}
     320:	dfc00017 	ldw	ra,0(sp)
     324:	dec00104 	addi	sp,sp,4
	timers_init();
	com_init();

	set_VGA_gain(plus1db);
	init_pulse_generator();
	Init_TDC7200();
     328:	00016a01 	jmpi	16a0 <Init_TDC7200>

0000032c <mainloop>:
}

void mainloop()
{
     32c:	deffff04 	addi	sp,sp,-4
     330:	dfc00015 	stw	ra,0(sp)
	com_routine();
     334:	0000b500 	call	b50 <com_routine>
	if (sys_timer_flags()->mainloop)
     338:	000194c0 	call	194c <sys_timer_flags>
     33c:	10800017 	ldw	r2,0(r2)
     340:	1080004c 	andi	r2,r2,1
     344:	1000031e 	bne	r2,zero,354 <mainloop+0x28>
	{
		sys_timer_flags()->mainloop = 0;
		photodetector_calibrating_routine();
	}
}
     348:	dfc00017 	ldw	ra,0(sp)
     34c:	dec00104 	addi	sp,sp,4
     350:	f800283a 	ret
void mainloop()
{
	com_routine();
	if (sys_timer_flags()->mainloop)
	{
		sys_timer_flags()->mainloop = 0;
     354:	000194c0 	call	194c <sys_timer_flags>
     358:	10c00003 	ldbu	r3,0(r2)
     35c:	18c03f8c 	andi	r3,r3,254
     360:	10c00005 	stb	r3,0(r2)
		photodetector_calibrating_routine();
	}
}
     364:	dfc00017 	ldw	ra,0(sp)
     368:	dec00104 	addi	sp,sp,4
{
	com_routine();
	if (sys_timer_flags()->mainloop)
	{
		sys_timer_flags()->mainloop = 0;
		photodetector_calibrating_routine();
     36c:	0000f481 	jmpi	f48 <photodetector_calibrating_routine>

00000370 <main>:
	}
}

int main ()
{
     370:	deffff04 	addi	sp,sp,-4
     374:	dfc00015 	stw	ra,0(sp)
	sys_init();
     378:	00003040 	call	304 <sys_init>
	while (1)
		mainloop();
     37c:	000032c0 	call	32c <mainloop>
     380:	000032c0 	call	32c <mainloop>
     384:	003ffd06 	br	37c <_gp+0xffff21ec>

00000388 <set_APD_ref_source>:
void set_APD_ref_source(unsigned char voltage)
{
	unsigned int tx_word = 0;
	unsigned int answer = 0;
	tx_word = voltage;
	tx_word = tx_word << 24;
     388:	200a963a 	slli	r5,r4,24
	current_voltage=cmd->data[0];
	set_APD_ref_source(current_voltage);
}

void set_APD_ref_source(unsigned char voltage)
{
     38c:	defffd04 	addi	sp,sp,-12
	unsigned int tx_word = 0;
	unsigned int answer = 0;
	tx_word = voltage;
	tx_word = tx_word << 24;
	answer=send_spi_word(SPI_APD_BASE,tx_word,APD_WORD_LEN,APD_CLK_DIV,APD_CLK_POL,APD_CLK_PH);
     390:	d8000015 	stw	zero,0(sp)
     394:	d8000115 	stw	zero,4(sp)
     398:	0125f014 	movui	r4,38848
     39c:	01800204 	movi	r6,8
     3a0:	01c00284 	movi	r7,10
	current_voltage=cmd->data[0];
	set_APD_ref_source(current_voltage);
}

void set_APD_ref_source(unsigned char voltage)
{
     3a4:	dfc00215 	stw	ra,8(sp)
	unsigned int tx_word = 0;
	unsigned int answer = 0;
	tx_word = voltage;
	tx_word = tx_word << 24;
	answer=send_spi_word(SPI_APD_BASE,tx_word,APD_WORD_LEN,APD_CLK_DIV,APD_CLK_POL,APD_CLK_PH);
     3a8:	00013300 	call	1330 <send_spi_word>
}
     3ac:	dfc00217 	ldw	ra,8(sp)
     3b0:	dec00304 	addi	sp,sp,12
     3b4:	f800283a 	ret

000003b8 <ProcCmd_APD>:

void ProcCmd_APD(t_pc_cmd *cmd);

void ProcCmd_APD(t_pc_cmd *cmd)
{
	current_voltage=cmd->data[0];
     3b8:	208000c3 	ldbu	r2,3(r4)
	set_APD_ref_source(current_voltage);
     3bc:	11003fcc 	andi	r4,r2,255

void ProcCmd_APD(t_pc_cmd *cmd);

void ProcCmd_APD(t_pc_cmd *cmd)
{
	current_voltage=cmd->data[0];
     3c0:	d0a1be45 	stb	r2,-30983(gp)
	set_APD_ref_source(current_voltage);
     3c4:	00003881 	jmpi	388 <set_APD_ref_source>

000003c8 <open_drive>:
void ProcCmd_Motor(t_pc_cmd* cmd);


void open_drive (unsigned int speed, unsigned char motor)
{
	if (motor==0) //iris
     3c8:	29403fcc 	andi	r5,r5,255
//void reset_drive_position(unsigned char motor);
void ProcCmd_Motor(t_pc_cmd* cmd);


void open_drive (unsigned int speed, unsigned char motor)
{
     3cc:	200d883a 	mov	r6,r4
	if (motor==0) //iris
     3d0:	28000326 	beq	r5,zero,3e0 <open_drive+0x18>
		start_moving(STEPPER_IRIS_BASE,1,speed);
	else
		start_moving(STEPPER_ATTEN_BASE,1,speed);
     3d4:	0125ec14 	movui	r4,38832
     3d8:	01400044 	movi	r5,1
     3dc:	00014141 	jmpi	1414 <start_moving>


void open_drive (unsigned int speed, unsigned char motor)
{
	if (motor==0) //iris
		start_moving(STEPPER_IRIS_BASE,1,speed);
     3e0:	0125e814 	movui	r4,38816
     3e4:	01400044 	movi	r5,1
     3e8:	00014141 	jmpi	1414 <start_moving>

000003ec <close_drive>:
		start_moving(STEPPER_ATTEN_BASE,1,speed);
}

void close_drive (unsigned int speed, unsigned char motor)
{
	if (motor==0) //iris
     3ec:	29403fcc 	andi	r5,r5,255
	else
		start_moving(STEPPER_ATTEN_BASE,1,speed);
}

void close_drive (unsigned int speed, unsigned char motor)
{
     3f0:	200d883a 	mov	r6,r4
	if (motor==0) //iris
     3f4:	28000326 	beq	r5,zero,404 <close_drive+0x18>
		start_moving(STEPPER_IRIS_BASE,0,speed);
	else
		start_moving(STEPPER_ATTEN_BASE,0,speed);
     3f8:	0125ec14 	movui	r4,38832
     3fc:	000b883a 	mov	r5,zero
     400:	00014141 	jmpi	1414 <start_moving>
}

void close_drive (unsigned int speed, unsigned char motor)
{
	if (motor==0) //iris
		start_moving(STEPPER_IRIS_BASE,0,speed);
     404:	0125e814 	movui	r4,38816
     408:	00014141 	jmpi	1414 <start_moving>

0000040c <stop_drive>:
		start_moving(STEPPER_ATTEN_BASE,0,speed);
}

void stop_drive(unsigned char motor)
{
	if (motor==0) //iris
     40c:	21003fcc 	andi	r4,r4,255
     410:	20000226 	beq	r4,zero,41c <stop_drive+0x10>
		stop_moving(STEPPER_IRIS_BASE);
	else
		stop_moving(STEPPER_ATTEN_BASE);
     414:	0125ec14 	movui	r4,38832
     418:	00014381 	jmpi	1438 <stop_moving>
}

void stop_drive(unsigned char motor)
{
	if (motor==0) //iris
		stop_moving(STEPPER_IRIS_BASE);
     41c:	0125e814 	movui	r4,38816
     420:	00014381 	jmpi	1438 <stop_moving>

00000424 <drive_change_pos>:
		stop_moving(STEPPER_ATTEN_BASE);
}

void drive_change_pos(unsigned int position, unsigned int speed, unsigned char dir, unsigned char motor)
{
	if (motor==0)
     424:	38c03fcc 	andi	r3,r7,255
	else
		stop_moving(STEPPER_ATTEN_BASE);
}

void drive_change_pos(unsigned int position, unsigned int speed, unsigned char dir, unsigned char motor)
{
     428:	2805883a 	mov	r2,r5
     42c:	200f883a 	mov	r7,r4
	if (motor==0)
     430:	18000426 	beq	r3,zero,444 <drive_change_pos+0x20>
		move_on_distance(STEPPER_IRIS_BASE,dir,speed,position);
	else
		move_on_distance(STEPPER_ATTEN_BASE,dir,speed,position);
     434:	31403fcc 	andi	r5,r6,255
     438:	0125ec14 	movui	r4,38832
     43c:	100d883a 	mov	r6,r2
     440:	00014401 	jmpi	1440 <move_on_distance>
}

void drive_change_pos(unsigned int position, unsigned int speed, unsigned char dir, unsigned char motor)
{
	if (motor==0)
		move_on_distance(STEPPER_IRIS_BASE,dir,speed,position);
     444:	31403fcc 	andi	r5,r6,255
     448:	0125e814 	movui	r4,38816
     44c:	100d883a 	mov	r6,r2
     450:	00014401 	jmpi	1440 <move_on_distance>

00000454 <drive_pos>:
		move_on_distance(STEPPER_ATTEN_BASE,dir,speed,position);
}

unsigned int drive_pos (unsigned char motor)
{
	if (motor==0)
     454:	21003fcc 	andi	r4,r4,255
     458:	20000226 	beq	r4,zero,464 <drive_pos+0x10>
		return current_pos(STEPPER_IRIS_BASE);
	else
		return current_pos(STEPPER_ATTEN_BASE);
     45c:	0125ec14 	movui	r4,38832
     460:	00014681 	jmpi	1468 <current_pos>
}

unsigned int drive_pos (unsigned char motor)
{
	if (motor==0)
		return current_pos(STEPPER_IRIS_BASE);
     464:	0125e814 	movui	r4,38816
     468:	00014681 	jmpi	1468 <current_pos>

0000046c <reset_drive_position>:
		return current_pos(STEPPER_ATTEN_BASE);
}

void reset_drive_position(unsigned char motor)
{
	if (motor==0)
     46c:	21003fcc 	andi	r4,r4,255
     470:	20000226 	beq	r4,zero,47c <reset_drive_position+0x10>
		reset_position(STEPPER_IRIS_BASE);
	else
		reset_position(STEPPER_ATTEN_BASE);
     474:	0125ec14 	movui	r4,38832
     478:	00014701 	jmpi	1470 <reset_position>
}

void reset_drive_position(unsigned char motor)
{
	if (motor==0)
		reset_position(STEPPER_IRIS_BASE);
     47c:	0125e814 	movui	r4,38816
     480:	00014701 	jmpi	1470 <reset_position>

00000484 <ProcCmd_Motor>:
	else
		reset_position(STEPPER_ATTEN_BASE);
}

void ProcCmd_Motor(t_pc_cmd* cmd)
{
     484:	defff504 	addi	sp,sp,-44
     488:	dc000915 	stw	r16,36(sp)
     48c:	dfc00a15 	stw	ra,40(sp)
	unsigned int speed = 0;
	unsigned int position = 0;
	unsigned char motor = (cmd->code==PCCOM_STEPPER_IRIS)?0x0:0x1;

	speed = ((unsigned int)(cmd->data[1]))|(((unsigned int)(cmd->data[2]))<<8)|(((unsigned int)(cmd->data[3]))<<16)|(((unsigned int)(cmd->data[4]))<<24);
     490:	22400143 	ldbu	r9,5(r4)
     494:	21c00183 	ldbu	r7,6(r4)
	position = ((unsigned int)(cmd->data[5]))|(((unsigned int)(cmd->data[6]))<<8);
     498:	21800243 	ldbu	r6,9(r4)
{
	unsigned int speed = 0;
	unsigned int position = 0;
	unsigned char motor = (cmd->code==PCCOM_STEPPER_IRIS)?0x0:0x1;

	speed = ((unsigned int)(cmd->data[1]))|(((unsigned int)(cmd->data[2]))<<8)|(((unsigned int)(cmd->data[3]))<<16)|(((unsigned int)(cmd->data[4]))<<24);
     49c:	220001c3 	ldbu	r8,7(r4)
	else
		reset_position(STEPPER_ATTEN_BASE);
}

void ProcCmd_Motor(t_pc_cmd* cmd)
{
     4a0:	2021883a 	mov	r16,r4
	unsigned int speed = 0;
	unsigned int position = 0;
	unsigned char motor = (cmd->code==PCCOM_STEPPER_IRIS)?0x0:0x1;

	speed = ((unsigned int)(cmd->data[1]))|(((unsigned int)(cmd->data[2]))<<8)|(((unsigned int)(cmd->data[3]))<<16)|(((unsigned int)(cmd->data[4]))<<24);
     4a4:	380e943a 	slli	r7,r7,16
     4a8:	4812923a 	slli	r9,r9,8

void ProcCmd_Motor(t_pc_cmd* cmd)
{
	unsigned int speed = 0;
	unsigned int position = 0;
	unsigned char motor = (cmd->code==PCCOM_STEPPER_IRIS)?0x0:0x1;
     4ac:	21000043 	ldbu	r4,1(r4)

	speed = ((unsigned int)(cmd->data[1]))|(((unsigned int)(cmd->data[2]))<<8)|(((unsigned int)(cmd->data[3]))<<16)|(((unsigned int)(cmd->data[4]))<<24);
	position = ((unsigned int)(cmd->data[5]))|(((unsigned int)(cmd->data[6]))<<8);
     4b0:	80c00203 	ldbu	r3,8(r16)
{
	unsigned int speed = 0;
	unsigned int position = 0;
	unsigned char motor = (cmd->code==PCCOM_STEPPER_IRIS)?0x0:0x1;

	speed = ((unsigned int)(cmd->data[1]))|(((unsigned int)(cmd->data[2]))<<8)|(((unsigned int)(cmd->data[3]))<<16)|(((unsigned int)(cmd->data[4]))<<24);
     4b4:	81400103 	ldbu	r5,4(r16)
	position = ((unsigned int)(cmd->data[5]))|(((unsigned int)(cmd->data[6]))<<8);
     4b8:	300c923a 	slli	r6,r6,8
{
	unsigned int speed = 0;
	unsigned int position = 0;
	unsigned char motor = (cmd->code==PCCOM_STEPPER_IRIS)?0x0:0x1;

	speed = ((unsigned int)(cmd->data[1]))|(((unsigned int)(cmd->data[2]))<<8)|(((unsigned int)(cmd->data[3]))<<16)|(((unsigned int)(cmd->data[4]))<<24);
     4bc:	4010963a 	slli	r8,r8,24
	position = ((unsigned int)(cmd->data[5]))|(((unsigned int)(cmd->data[6]))<<8);

	switch (cmd->data[0])
     4c0:	808000c3 	ldbu	r2,3(r16)
{
	unsigned int speed = 0;
	unsigned int position = 0;
	unsigned char motor = (cmd->code==PCCOM_STEPPER_IRIS)?0x0:0x1;

	speed = ((unsigned int)(cmd->data[1]))|(((unsigned int)(cmd->data[2]))<<8)|(((unsigned int)(cmd->data[3]))<<16)|(((unsigned int)(cmd->data[4]))<<24);
     4c4:	49d2b03a 	or	r9,r9,r7

void ProcCmd_Motor(t_pc_cmd* cmd)
{
	unsigned int speed = 0;
	unsigned int position = 0;
	unsigned char motor = (cmd->code==PCCOM_STEPPER_IRIS)?0x0:0x1;
     4c8:	210001d8 	cmpnei	r4,r4,7

	speed = ((unsigned int)(cmd->data[1]))|(((unsigned int)(cmd->data[2]))<<8)|(((unsigned int)(cmd->data[3]))<<16)|(((unsigned int)(cmd->data[4]))<<24);
     4cc:	4952b03a 	or	r9,r9,r5

void ProcCmd_Motor(t_pc_cmd* cmd)
{
	unsigned int speed = 0;
	unsigned int position = 0;
	unsigned char motor = (cmd->code==PCCOM_STEPPER_IRIS)?0x0:0x1;
     4d0:	200f883a 	mov	r7,r4

	speed = ((unsigned int)(cmd->data[1]))|(((unsigned int)(cmd->data[2]))<<8)|(((unsigned int)(cmd->data[3]))<<16)|(((unsigned int)(cmd->data[4]))<<24);
	position = ((unsigned int)(cmd->data[5]))|(((unsigned int)(cmd->data[6]))<<8);
     4d4:	30c8b03a 	or	r4,r6,r3

	switch (cmd->data[0])
     4d8:	00c00184 	movi	r3,6
{
	unsigned int speed = 0;
	unsigned int position = 0;
	unsigned char motor = (cmd->code==PCCOM_STEPPER_IRIS)?0x0:0x1;

	speed = ((unsigned int)(cmd->data[1]))|(((unsigned int)(cmd->data[2]))<<8)|(((unsigned int)(cmd->data[3]))<<16)|(((unsigned int)(cmd->data[4]))<<24);
     4dc:	4a10b03a 	or	r8,r9,r8
	position = ((unsigned int)(cmd->data[5]))|(((unsigned int)(cmd->data[6]))<<8);

	switch (cmd->data[0])
     4e0:	18801036 	bltu	r3,r2,524 <ProcCmd_Motor+0xa0>
     4e4:	1085883a 	add	r2,r2,r2
     4e8:	1085883a 	add	r2,r2,r2
     4ec:	00c00034 	movhi	r3,0
     4f0:	18c14004 	addi	r3,r3,1280
     4f4:	10c5883a 	add	r2,r2,r3
     4f8:	10800017 	ldw	r2,0(r2)
     4fc:	1000683a 	jmp	r2
     500:	00000588 	cmpgei	zero,zero,22
     504:	000005a4 	muli	zero,zero,22
     508:	000005c0 	call	5c <alt_exception+0x3c>
     50c:	000005d8 	cmpnei	zero,zero,23
     510:	000005f8 	rdprs	zero,zero,23
     514:	00000534 	movhi	zero,20
     518:	0000051c 	xori	zero,zero,20
				pack.data[3] = (position>>24)&0xff;
				send_cmd2pc(&pack);
			} break;
	case cmd_reset_position:
				{
					reset_drive_position(motor);
     51c:	39003fcc 	andi	r4,r7,255
     520:	000046c0 	call	46c <reset_drive_position>
				} break;
	}
}
     524:	dfc00a17 	ldw	ra,40(sp)
     528:	dc000917 	ldw	r16,36(sp)
     52c:	dec00b04 	addi	sp,sp,44
     530:	f800283a 	ret
			{
			drive_change_pos(position,speed,0,motor);
			} break;
	case cmd_read_position:
			{
				position = drive_pos(motor);
     534:	39003fcc 	andi	r4,r7,255
     538:	00004540 	call	454 <drive_pos>
				t_pc_cmd pack;
				pack.sign = SIGN;
				pack.code = cmd->code;
     53c:	81c00043 	ldbu	r7,1(r16)
				pack.dlen = 4;
				pack.data[0] = position&0xff;   //position
				pack.data[1] = (position>>8)&0xff;
     540:	100cd23a 	srli	r6,r2,8
				pack.data[2] = (position>>16)&0xff;
     544:	100ad43a 	srli	r5,r2,16
				pack.data[3] = (position>>24)&0xff;
     548:	1006d63a 	srli	r3,r2,24
			} break;
	case cmd_read_position:
			{
				position = drive_pos(motor);
				t_pc_cmd pack;
				pack.sign = SIGN;
     54c:	020016c4 	movi	r8,91
				pack.code = cmd->code;
     550:	d9c00045 	stb	r7,1(sp)
				pack.dlen = 4;
				pack.data[0] = position&0xff;   //position
				pack.data[1] = (position>>8)&0xff;
				pack.data[2] = (position>>16)&0xff;
				pack.data[3] = (position>>24)&0xff;
				send_cmd2pc(&pack);
     554:	d809883a 	mov	r4,sp
			{
				position = drive_pos(motor);
				t_pc_cmd pack;
				pack.sign = SIGN;
				pack.code = cmd->code;
				pack.dlen = 4;
     558:	01c00104 	movi	r7,4
			} break;
	case cmd_read_position:
			{
				position = drive_pos(motor);
				t_pc_cmd pack;
				pack.sign = SIGN;
     55c:	da000005 	stb	r8,0(sp)
				pack.code = cmd->code;
				pack.dlen = 4;
     560:	d9c00085 	stb	r7,2(sp)
				pack.data[0] = position&0xff;   //position
     564:	d88000c5 	stb	r2,3(sp)
				pack.data[1] = (position>>8)&0xff;
     568:	d9800105 	stb	r6,4(sp)
				pack.data[2] = (position>>16)&0xff;
     56c:	d9400145 	stb	r5,5(sp)
				pack.data[3] = (position>>24)&0xff;
     570:	d8c00185 	stb	r3,6(sp)
				send_cmd2pc(&pack);
     574:	00008400 	call	840 <send_cmd2pc>
	case cmd_reset_position:
				{
					reset_drive_position(motor);
				} break;
	}
}
     578:	dfc00a17 	ldw	ra,40(sp)
     57c:	dc000917 	ldw	r16,36(sp)
     580:	dec00b04 	addi	sp,sp,44
     584:	f800283a 	ret

	switch (cmd->data[0])
	{
	case cmd_go_forward:
			{
			open_drive(speed,motor);
     588:	39403fcc 	andi	r5,r7,255
     58c:	4009883a 	mov	r4,r8
     590:	00003c80 	call	3c8 <open_drive>
	case cmd_reset_position:
				{
					reset_drive_position(motor);
				} break;
	}
}
     594:	dfc00a17 	ldw	ra,40(sp)
     598:	dc000917 	ldw	r16,36(sp)
     59c:	dec00b04 	addi	sp,sp,44
     5a0:	f800283a 	ret
			{
			open_drive(speed,motor);
			} break;
	case cmd_go_back:
			{
			close_drive(speed,motor);
     5a4:	39403fcc 	andi	r5,r7,255
     5a8:	4009883a 	mov	r4,r8
     5ac:	00003ec0 	call	3ec <close_drive>
	case cmd_reset_position:
				{
					reset_drive_position(motor);
				} break;
	}
}
     5b0:	dfc00a17 	ldw	ra,40(sp)
     5b4:	dc000917 	ldw	r16,36(sp)
     5b8:	dec00b04 	addi	sp,sp,44
     5bc:	f800283a 	ret
			{
			close_drive(speed,motor);
			} break;
	case cmd_stop:
			{
			stop_drive(motor);
     5c0:	39003fcc 	andi	r4,r7,255
     5c4:	000040c0 	call	40c <stop_drive>
	case cmd_reset_position:
				{
					reset_drive_position(motor);
				} break;
	}
}
     5c8:	dfc00a17 	ldw	ra,40(sp)
     5cc:	dc000917 	ldw	r16,36(sp)
     5d0:	dec00b04 	addi	sp,sp,44
     5d4:	f800283a 	ret
			{
			stop_drive(motor);
			} break;
	case cmd_go_forward_on_distance:
			{
			drive_change_pos(position,speed,1,motor);
     5d8:	39c03fcc 	andi	r7,r7,255
     5dc:	400b883a 	mov	r5,r8
     5e0:	01800044 	movi	r6,1
     5e4:	00004240 	call	424 <drive_change_pos>
	case cmd_reset_position:
				{
					reset_drive_position(motor);
				} break;
	}
}
     5e8:	dfc00a17 	ldw	ra,40(sp)
     5ec:	dc000917 	ldw	r16,36(sp)
     5f0:	dec00b04 	addi	sp,sp,44
     5f4:	f800283a 	ret
			{
			drive_change_pos(position,speed,1,motor);
			} break;
	case cmd_go_back_on_distance:
			{
			drive_change_pos(position,speed,0,motor);
     5f8:	39c03fcc 	andi	r7,r7,255
     5fc:	400b883a 	mov	r5,r8
     600:	000d883a 	mov	r6,zero
     604:	00004240 	call	424 <drive_change_pos>
	case cmd_reset_position:
				{
					reset_drive_position(motor);
				} break;
	}
}
     608:	dfc00a17 	ldw	ra,40(sp)
     60c:	dc000917 	ldw	r16,36(sp)
     610:	dec00b04 	addi	sp,sp,44
     614:	f800283a 	ret

00000618 <uart_rx_interrupt_handler>:
static void uart_rx_interrupt_handler(void* context)
#else
static void uart_rx_interrupt_handler(void* context, alt_u32 id)
#endif
{
	unsigned int status = IORD_ALTERA_AVALON_UART_STATUS(PC_UART_BASE);
     618:	00a5da14 	movui	r2,38760
     61c:	10800037 	ldwio	r2,0(r2)
	unsigned int rx_data = IORD_ALTERA_AVALON_UART_RXDATA(PC_UART_BASE); //reading and clearing interrupt flag
     620:	00e5d814 	movui	r3,38752
     624:	19400037 	ldwio	r5,0(r3)
	if (status&ALTERA_AVALON_UART_STATUS_RRDY_MSK)
     628:	1080200c 	andi	r2,r2,128
     62c:	10000826 	beq	r2,zero,650 <uart_rx_interrupt_handler+0x38>
	{
		if (com.rx_byte_cnt<(UART_RX_BUF_SIZE-1))
     630:	00800034 	movhi	r2,0
     634:	109a3104 	addi	r2,r2,26820
     638:	10c0050b 	ldhu	r3,20(r2)
     63c:	01801f84 	movi	r6,126
     640:	193fffcc 	andi	r4,r3,65535
     644:	3100032e 	bgeu	r6,r4,654 <uart_rx_interrupt_handler+0x3c>
			com.rx_buf[com.rx_byte_cnt]=rx_data;
			com.rx_byte_cnt++;
		}
		else
		{
			com.error=1;
     648:	00c00044 	movi	r3,1
     64c:	10c00445 	stb	r3,17(r2)
     650:	f800283a 	ret
	unsigned int rx_data = IORD_ALTERA_AVALON_UART_RXDATA(PC_UART_BASE); //reading and clearing interrupt flag
	if (status&ALTERA_AVALON_UART_STATUS_RRDY_MSK)
	{
		if (com.rx_byte_cnt<(UART_RX_BUF_SIZE-1))
		{
			com.rx_buf[com.rx_byte_cnt]=rx_data;
     654:	1109883a 	add	r4,r2,r4
			com.rx_byte_cnt++;
     658:	18c00044 	addi	r3,r3,1
	unsigned int rx_data = IORD_ALTERA_AVALON_UART_RXDATA(PC_UART_BASE); //reading and clearing interrupt flag
	if (status&ALTERA_AVALON_UART_STATUS_RRDY_MSK)
	{
		if (com.rx_byte_cnt<(UART_RX_BUF_SIZE-1))
		{
			com.rx_buf[com.rx_byte_cnt]=rx_data;
     65c:	21400585 	stb	r5,22(r4)
			com.rx_byte_cnt++;
     660:	10c0050d 	sth	r3,20(r2)
     664:	f800283a 	ret

00000668 <register_uart_interrupt>:
		}
	}
}

void register_uart_interrupt(t_rs485_config *c)
{
     668:	2005883a 	mov	r2,r4
	#ifdef ALT_ENHANCED_INTERRUPT_API_PRESENT
	alt_ic_isr_register(c->controller.interr_id, c->controller.irq, uart_rx_interrupt_handler, uart_context_ptr, 0x0);
     66c:	11400117 	ldw	r5,4(r2)
     670:	21000217 	ldw	r4,8(r4)
     674:	d1e00017 	ldw	r7,-32768(gp)
		}
	}
}

void register_uart_interrupt(t_rs485_config *c)
{
     678:	defffe04 	addi	sp,sp,-8
	#ifdef ALT_ENHANCED_INTERRUPT_API_PRESENT
	alt_ic_isr_register(c->controller.interr_id, c->controller.irq, uart_rx_interrupt_handler, uart_context_ptr, 0x0);
     67c:	d8000015 	stw	zero,0(sp)
     680:	01800034 	movhi	r6,0
     684:	31818604 	addi	r6,r6,1560
		}
	}
}

void register_uart_interrupt(t_rs485_config *c)
{
     688:	dfc00115 	stw	ra,4(sp)
	#ifdef ALT_ENHANCED_INTERRUPT_API_PRESENT
	alt_ic_isr_register(c->controller.interr_id, c->controller.irq, uart_rx_interrupt_handler, uart_context_ptr, 0x0);
     68c:	0003a840 	call	3a84 <alt_ic_isr_register>
	#else
	alt_irq_register(c->controller.irq, uart_context_ptr, uart_rx_interrupt_handler);
	#endif
}
     690:	dfc00117 	ldw	ra,4(sp)
     694:	dec00204 	addi	sp,sp,8
     698:	f800283a 	ret

0000069c <rs485_init>:


void rs485_init(t_rs485_config *c)
{
     69c:	defffe04 	addi	sp,sp,-8
     6a0:	dc000015 	stw	r16,0(sp)
     6a4:	dfc00115 	stw	ra,4(sp)
	c->controller.base	=			(alt_u32)PC_UART_BASE;
     6a8:	00a5d814 	movui	r2,38752
     6ac:	20800015 	stw	r2,0(r4)
	c->controller.irq	=			(alt_u32)PC_UART_IRQ;
     6b0:	00800044 	movi	r2,1
     6b4:	20800115 	stw	r2,4(r4)
	c->controller.interr_id =		(alt_u32)PC_UART_IRQ_INTERRUPT_CONTROLLER_ID;
	c->controller.speed_divider =	(alt_u32)UART_DIVIDER;
     6b8:	0080d944 	movi	r2,869
	#endif
}


void rs485_init(t_rs485_config *c)
{
     6bc:	2021883a 	mov	r16,r4
	c->controller.base	=			(alt_u32)PC_UART_BASE;
	c->controller.irq	=			(alt_u32)PC_UART_IRQ;
	c->controller.interr_id =		(alt_u32)PC_UART_IRQ_INTERRUPT_CONTROLLER_ID;
     6c0:	20000215 	stw	zero,8(r4)
	c->controller.speed_divider =	(alt_u32)UART_DIVIDER;
     6c4:	20800315 	stw	r2,12(r4)
	c->driver_direction = 			reciever_mode;
     6c8:	20000485 	stb	zero,18(r4)
	c->rx_buf_full = 				0;
     6cc:	20000405 	stb	zero,16(r4)
	c->error = 						0;
     6d0:	20000445 	stb	zero,17(r4)
	c->rx_byte_cnt = 				0;
     6d4:	2000050d 	sth	zero,20(r4)
	memset(c->rx_buf,0,sizeof(c->rx_buf));
     6d8:	000b883a 	mov	r5,zero
     6dc:	21000584 	addi	r4,r4,22
     6e0:	01802004 	movi	r6,128
     6e4:	00038680 	call	3868 <memset>
	register_uart_interrupt(c);
     6e8:	8009883a 	mov	r4,r16
}
     6ec:	dfc00117 	ldw	ra,4(sp)
     6f0:	dc000017 	ldw	r16,0(sp)
     6f4:	dec00204 	addi	sp,sp,8
	c->driver_direction = 			reciever_mode;
	c->rx_buf_full = 				0;
	c->error = 						0;
	c->rx_byte_cnt = 				0;
	memset(c->rx_buf,0,sizeof(c->rx_buf));
	register_uart_interrupt(c);
     6f8:	00006681 	jmpi	668 <register_uart_interrupt>

000006fc <integrity_check>:
}

alt_8 integrity_check(alt_u8 *start)
{
	alt_8 pack_len = -1;
	alt_u8 dlen = start[2];
     6fc:	20800083 	ldbu	r2,2(r4)
	alt_u8 crc = calculate_crc(start,dlen+3);
     700:	11c000c4 	addi	r7,r2,3

alt_u8 calculate_crc(alt_u8 *msg, alt_u8 size)
{
	alt_u8 buffer = 0;
	alt_16 i = 0;
	for (i=0;i<size;i++)
     704:	39c03fcc 	andi	r7,r7,255
     708:	38001026 	beq	r7,zero,74c <integrity_check+0x50>
     70c:	0007883a 	mov	r3,zero
     710:	000b883a 	mov	r5,zero
		c->rx_byte_cnt=c->rx_byte_cnt-bytes_to_delete;
		memcpy(c->rx_buf,c->rx_buf+bytes_to_delete,c->rx_byte_cnt);
	}
}

alt_8 integrity_check(alt_u8 *start)
     714:	20cd883a 	add	r6,r4,r3
alt_u8 calculate_crc(alt_u8 *msg, alt_u8 size)
{
	alt_u8 buffer = 0;
	alt_16 i = 0;
	for (i=0;i<size;i++)
		buffer=buffer^msg[i];
     718:	31800003 	ldbu	r6,0(r6)
     71c:	18c00044 	addi	r3,r3,1
     720:	298af03a 	xor	r5,r5,r6

alt_u8 calculate_crc(alt_u8 *msg, alt_u8 size)
{
	alt_u8 buffer = 0;
	alt_16 i = 0;
	for (i=0;i<size;i++)
     724:	19fffb16 	blt	r3,r7,714 <_gp+0xffff2584>
alt_8 integrity_check(alt_u8 *start)
{
	alt_8 pack_len = -1;
	alt_u8 dlen = start[2];
	alt_u8 crc = calculate_crc(start,dlen+3);
	if (crc==start[3+dlen])
     728:	10c03fcc 	andi	r3,r2,255
     72c:	20c9883a 	add	r4,r4,r3
     730:	20c000c3 	ldbu	r3,3(r4)
     734:	29403fcc 	andi	r5,r5,255
     738:	1940021e 	bne	r3,r5,744 <integrity_check+0x48>
		pack_len = 4+dlen;
     73c:	10800104 	addi	r2,r2,4
     740:	f800283a 	ret
	}
}

alt_8 integrity_check(alt_u8 *start)
{
	alt_8 pack_len = -1;
     744:	00bfffc4 	movi	r2,-1
	alt_u8 dlen = start[2];
	alt_u8 crc = calculate_crc(start,dlen+3);
	if (crc==start[3+dlen])
		pack_len = 4+dlen;
	return pack_len;
}
     748:	f800283a 	ret

alt_u8 calculate_crc(alt_u8 *msg, alt_u8 size)
{
	alt_u8 buffer = 0;
     74c:	000b883a 	mov	r5,zero
     750:	003ff506 	br	728 <_gp+0xffff2598>

00000754 <calculate_crc>:
	alt_16 i = 0;
	for (i=0;i<size;i++)
     754:	29403fcc 	andi	r5,r5,255
     758:	28000826 	beq	r5,zero,77c <calculate_crc+0x28>
     75c:	0007883a 	mov	r3,zero
     760:	0005883a 	mov	r2,zero
	if (crc==start[3+dlen])
		pack_len = 4+dlen;
	return pack_len;
}

alt_u8 calculate_crc(alt_u8 *msg, alt_u8 size)
     764:	20cd883a 	add	r6,r4,r3
{
	alt_u8 buffer = 0;
	alt_16 i = 0;
	for (i=0;i<size;i++)
		buffer=buffer^msg[i];
     768:	31800003 	ldbu	r6,0(r6)
     76c:	18c00044 	addi	r3,r3,1
     770:	1184f03a 	xor	r2,r2,r6

alt_u8 calculate_crc(alt_u8 *msg, alt_u8 size)
{
	alt_u8 buffer = 0;
	alt_16 i = 0;
	for (i=0;i<size;i++)
     774:	197ffb16 	blt	r3,r5,764 <_gp+0xffff25d4>
     778:	f800283a 	ret
	return pack_len;
}

alt_u8 calculate_crc(alt_u8 *msg, alt_u8 size)
{
	alt_u8 buffer = 0;
     77c:	0005883a 	mov	r2,zero
	alt_16 i = 0;
	for (i=0;i<size;i++)
		buffer=buffer^msg[i];
	return buffer;
}
     780:	f800283a 	ret

00000784 <send_byte_by_uart>:

alt_u8 send_byte_by_uart(unsigned char tx_byte)
{
    IOWR_ALTERA_AVALON_UART_TXDATA (PC_UART_BASE, tx_byte);
     784:	21003fcc 	andi	r4,r4,255
     788:	00a5d914 	movui	r2,38756
     78c:	11000035 	stwio	r4,0(r2)
    while (!(IORD_ALTERA_AVALON_UART_STATUS(PC_UART_BASE)&ALTERA_AVALON_UART_STATUS_TMT_MSK));
     790:	00e5da14 	movui	r3,38760
     794:	18800037 	ldwio	r2,0(r3)
     798:	1080080c 	andi	r2,r2,32
     79c:	103ffd26 	beq	r2,zero,794 <_gp+0xffff2604>
    return 1;
}
     7a0:	00800044 	movi	r2,1
     7a4:	f800283a 	ret

000007a8 <send_message2pc>:

alt_u8 send_message2pc(alt_u8 *msg, alt_u8 len)
{
	alt_16 i = 0;
	for (i=0;i<len;i++)
     7a8:	29403fcc 	andi	r5,r5,255
     7ac:	000d883a 	mov	r6,zero
     7b0:	28000a26 	beq	r5,zero,7dc <send_message2pc+0x34>
	return buffer;
}

alt_u8 send_byte_by_uart(unsigned char tx_byte)
{
    IOWR_ALTERA_AVALON_UART_TXDATA (PC_UART_BASE, tx_byte);
     7b4:	01e5d914 	movui	r7,38756
    while (!(IORD_ALTERA_AVALON_UART_STATUS(PC_UART_BASE)&ALTERA_AVALON_UART_STATUS_TMT_MSK));
     7b8:	00e5da14 	movui	r3,38760
    return 1;
}

alt_u8 send_message2pc(alt_u8 *msg, alt_u8 len)
     7bc:	2185883a 	add	r2,r4,r6
	return buffer;
}

alt_u8 send_byte_by_uart(unsigned char tx_byte)
{
    IOWR_ALTERA_AVALON_UART_TXDATA (PC_UART_BASE, tx_byte);
     7c0:	10800003 	ldbu	r2,0(r2)
     7c4:	38800035 	stwio	r2,0(r7)
    while (!(IORD_ALTERA_AVALON_UART_STATUS(PC_UART_BASE)&ALTERA_AVALON_UART_STATUS_TMT_MSK));
     7c8:	18800037 	ldwio	r2,0(r3)
     7cc:	1080080c 	andi	r2,r2,32
     7d0:	103ffd26 	beq	r2,zero,7c8 <_gp+0xffff2638>
     7d4:	31800044 	addi	r6,r6,1
}

alt_u8 send_message2pc(alt_u8 *msg, alt_u8 len)
{
	alt_16 i = 0;
	for (i=0;i<len;i++)
     7d8:	317ff816 	blt	r6,r5,7bc <_gp+0xffff262c>
		send_byte_by_uart(msg[i]);
	return 1;
}
     7dc:	00800044 	movi	r2,1
     7e0:	f800283a 	ret

000007e4 <set_rs485_driver_dir>:

void set_rs485_driver_dir(alt_u8 dir)
{
	if (dir) //driver
     7e4:	21003fcc 	andi	r4,r4,255
		IOWR_ALTERA_AVALON_PIO_DATA(RS485_DE_BASE,0x1);
     7e8:	00a5b014 	movui	r2,38592
	return 1;
}

void set_rs485_driver_dir(alt_u8 dir)
{
	if (dir) //driver
     7ec:	2000021e 	bne	r4,zero,7f8 <set_rs485_driver_dir+0x14>
		IOWR_ALTERA_AVALON_PIO_DATA(RS485_DE_BASE,0x1);
	else //reciever
		IOWR_ALTERA_AVALON_PIO_DATA(RS485_DE_BASE,0x0);
     7f0:	10000035 	stwio	zero,0(r2)
     7f4:	f800283a 	ret
}

void set_rs485_driver_dir(alt_u8 dir)
{
	if (dir) //driver
		IOWR_ALTERA_AVALON_PIO_DATA(RS485_DE_BASE,0x1);
     7f8:	00c00044 	movi	r3,1
     7fc:	10c00035 	stwio	r3,0(r2)
     800:	f800283a 	ret

00000804 <msg_crc>:

alt_u8 msg_crc(alt_u8 *ptr, alt_u8 len)
{
	alt_u8 crc = 0;
	alt_16 i = 0;
	for (i=0;i<len;i++)
     804:	29403fcc 	andi	r5,r5,255
     808:	28000826 	beq	r5,zero,82c <msg_crc+0x28>
     80c:	0007883a 	mov	r3,zero
     810:	0005883a 	mov	r2,zero
		IOWR_ALTERA_AVALON_PIO_DATA(RS485_DE_BASE,0x1);
	else //reciever
		IOWR_ALTERA_AVALON_PIO_DATA(RS485_DE_BASE,0x0);
}

alt_u8 msg_crc(alt_u8 *ptr, alt_u8 len)
     814:	20cd883a 	add	r6,r4,r3
{
	alt_u8 crc = 0;
	alt_16 i = 0;
	for (i=0;i<len;i++)
		crc=crc^ptr[i];
     818:	31800003 	ldbu	r6,0(r6)
     81c:	18c00044 	addi	r3,r3,1
     820:	1184f03a 	xor	r2,r2,r6

alt_u8 msg_crc(alt_u8 *ptr, alt_u8 len)
{
	alt_u8 crc = 0;
	alt_16 i = 0;
	for (i=0;i<len;i++)
     824:	197ffb16 	blt	r3,r5,814 <_gp+0xffff2684>
     828:	f800283a 	ret
		IOWR_ALTERA_AVALON_PIO_DATA(RS485_DE_BASE,0x0);
}

alt_u8 msg_crc(alt_u8 *ptr, alt_u8 len)
{
	alt_u8 crc = 0;
     82c:	0005883a 	mov	r2,zero
	alt_16 i = 0;
	for (i=0;i<len;i++)
		crc=crc^ptr[i];
	return crc;
}
     830:	f800283a 	ret

00000834 <com_init>:

//**************************************************************************************************************
void com_init()
{
	rs485_init(&com);
     834:	01000034 	movhi	r4,0
     838:	211a3104 	addi	r4,r4,26820
     83c:	000069c1 	jmpi	69c <rs485_init>

00000840 <send_cmd2pc>:
}

alt_u8 send_cmd2pc(t_pc_cmd *cmd)
{
	alt_u8 *ptr = (alt_u8*)cmd;
	alt_u8 dlen = cmd->dlen + 3; //without crc
     840:	21c00083 	ldbu	r7,2(r4)
     844:	398000c4 	addi	r6,r7,3

alt_u8 msg_crc(alt_u8 *ptr, alt_u8 len)
{
	alt_u8 crc = 0;
	alt_16 i = 0;
	for (i=0;i<len;i++)
     848:	31803fcc 	andi	r6,r6,255
alt_u8 send_cmd2pc(t_pc_cmd *cmd)
{
	alt_u8 *ptr = (alt_u8*)cmd;
	alt_u8 dlen = cmd->dlen + 3; //without crc
	//unsigned char crc = msg_crc(ptr,dlen);
	cmd->data[cmd->dlen] = msg_crc(ptr,dlen);
     84c:	3a003fcc 	andi	r8,r7,255

alt_u8 msg_crc(alt_u8 *ptr, alt_u8 len)
{
	alt_u8 crc = 0;
	alt_16 i = 0;
	for (i=0;i<len;i++)
     850:	30001e26 	beq	r6,zero,8cc <send_cmd2pc+0x8c>
     854:	0005883a 	mov	r2,zero
     858:	0007883a 	mov	r3,zero
			break;
		default: break;
	}
}

alt_u8 send_cmd2pc(t_pc_cmd *cmd)
     85c:	208b883a 	add	r5,r4,r2
alt_u8 msg_crc(alt_u8 *ptr, alt_u8 len)
{
	alt_u8 crc = 0;
	alt_16 i = 0;
	for (i=0;i<len;i++)
		crc=crc^ptr[i];
     860:	29400003 	ldbu	r5,0(r5)
     864:	10800044 	addi	r2,r2,1
     868:	1946f03a 	xor	r3,r3,r5

alt_u8 msg_crc(alt_u8 *ptr, alt_u8 len)
{
	alt_u8 crc = 0;
	alt_16 i = 0;
	for (i=0;i<len;i++)
     86c:	11bffb16 	blt	r2,r6,85c <_gp+0xffff26cc>
alt_u8 send_cmd2pc(t_pc_cmd *cmd)
{
	alt_u8 *ptr = (alt_u8*)cmd;
	alt_u8 dlen = cmd->dlen + 3; //without crc
	//unsigned char crc = msg_crc(ptr,dlen);
	cmd->data[cmd->dlen] = msg_crc(ptr,dlen);
     870:	2205883a 	add	r2,r4,r8
     874:	10c000c5 	stb	r3,3(r2)
}

void set_rs485_driver_dir(alt_u8 dir)
{
	if (dir) //driver
		IOWR_ALTERA_AVALON_PIO_DATA(RS485_DE_BASE,0x1);
     878:	00a5b014 	movui	r2,38592
     87c:	00c00044 	movi	r3,1
     880:	10c00035 	stwio	r3,0(r2)
	alt_u8 *ptr = (alt_u8*)cmd;
	alt_u8 dlen = cmd->dlen + 3; //without crc
	//unsigned char crc = msg_crc(ptr,dlen);
	cmd->data[cmd->dlen] = msg_crc(ptr,dlen);
	set_rs485_driver_dir(driver_enable);
	send_message2pc(ptr,dlen+1); //+1 for crc
     884:	39800104 	addi	r6,r7,4
}

alt_u8 send_message2pc(alt_u8 *msg, alt_u8 len)
{
	alt_16 i = 0;
	for (i=0;i<len;i++)
     888:	31803fcc 	andi	r6,r6,255
     88c:	000b883a 	mov	r5,zero
     890:	30000a26 	beq	r6,zero,8bc <send_cmd2pc+0x7c>
	return buffer;
}

alt_u8 send_byte_by_uart(unsigned char tx_byte)
{
    IOWR_ALTERA_AVALON_UART_TXDATA (PC_UART_BASE, tx_byte);
     894:	01e5d914 	movui	r7,38756
    while (!(IORD_ALTERA_AVALON_UART_STATUS(PC_UART_BASE)&ALTERA_AVALON_UART_STATUS_TMT_MSK));
     898:	00e5da14 	movui	r3,38760
			break;
		default: break;
	}
}

alt_u8 send_cmd2pc(t_pc_cmd *cmd)
     89c:	2145883a 	add	r2,r4,r5
	return buffer;
}

alt_u8 send_byte_by_uart(unsigned char tx_byte)
{
    IOWR_ALTERA_AVALON_UART_TXDATA (PC_UART_BASE, tx_byte);
     8a0:	10800003 	ldbu	r2,0(r2)
     8a4:	38800035 	stwio	r2,0(r7)
    while (!(IORD_ALTERA_AVALON_UART_STATUS(PC_UART_BASE)&ALTERA_AVALON_UART_STATUS_TMT_MSK));
     8a8:	18800037 	ldwio	r2,0(r3)
     8ac:	1080080c 	andi	r2,r2,32
     8b0:	103ffd26 	beq	r2,zero,8a8 <_gp+0xffff2718>
     8b4:	29400044 	addi	r5,r5,1
}

alt_u8 send_message2pc(alt_u8 *msg, alt_u8 len)
{
	alt_16 i = 0;
	for (i=0;i<len;i++)
     8b8:	29bff816 	blt	r5,r6,89c <_gp+0xffff270c>
void set_rs485_driver_dir(alt_u8 dir)
{
	if (dir) //driver
		IOWR_ALTERA_AVALON_PIO_DATA(RS485_DE_BASE,0x1);
	else //reciever
		IOWR_ALTERA_AVALON_PIO_DATA(RS485_DE_BASE,0x0);
     8bc:	00a5b014 	movui	r2,38592
     8c0:	10000035 	stwio	zero,0(r2)
	set_rs485_driver_dir(driver_enable);
	send_message2pc(ptr,dlen+1); //+1 for crc
	//send_byte_by_uart(crc);
	set_rs485_driver_dir(rec_enable);
	return 1;
}
     8c4:	00800044 	movi	r2,1
     8c8:	f800283a 	ret
		IOWR_ALTERA_AVALON_PIO_DATA(RS485_DE_BASE,0x0);
}

alt_u8 msg_crc(alt_u8 *ptr, alt_u8 len)
{
	alt_u8 crc = 0;
     8cc:	0007883a 	mov	r3,zero
     8d0:	003fe706 	br	870 <_gp+0xffff26e0>

000008d4 <command_handler>:
}

void command_handler(alt_u8 *new_cmd)
{
	t_pc_cmd *cmd = (t_pc_cmd*)new_cmd;
	switch (cmd->code)
     8d4:	20800043 	ldbu	r2,1(r4)
     8d8:	00c00104 	movi	r3,4
     8dc:	10c01926 	beq	r2,r3,944 <command_handler+0x70>
     8e0:	18800836 	bltu	r3,r2,904 <command_handler+0x30>
     8e4:	00c00044 	movi	r3,1
     8e8:	10c01526 	beq	r2,r3,940 <command_handler+0x6c>
     8ec:	10001126 	beq	r2,zero,934 <command_handler+0x60>
     8f0:	00c00084 	movi	r3,2
     8f4:	10c01526 	beq	r2,r3,94c <command_handler+0x78>
     8f8:	00c000c4 	movi	r3,3
     8fc:	10c00e26 	beq	r2,r3,938 <command_handler+0x64>
     900:	f800283a 	ret
     904:	00c00204 	movi	r3,8
     908:	1880052e 	bgeu	r3,r2,920 <command_handler+0x4c>
     90c:	00c00284 	movi	r3,10
     910:	10c00d26 	beq	r2,r3,948 <command_handler+0x74>
     914:	00c03784 	movi	r3,222
     918:	10fff91e 	bne	r2,r3,900 <_gp+0xffff2770>
			break;
		case PCCOM_MODE_SWITCHER:

			 break;
		case PCCOM_DEVICE:
			ProcCmd_Rangefinder(cmd);
     91c:	0000c701 	jmpi	c70 <ProcCmd_Rangefinder>
}

void command_handler(alt_u8 *new_cmd)
{
	t_pc_cmd *cmd = (t_pc_cmd*)new_cmd;
	switch (cmd->code)
     920:	00c001c4 	movi	r3,7
     924:	10c0052e 	bgeu	r2,r3,93c <command_handler+0x68>
     928:	00c00144 	movi	r3,5
     92c:	10fff41e 	bne	r2,r3,900 <_gp+0xffff2770>
			break;
		case PCCOM_TEST_GENERATOR:
			ProcCmd_PulseGen(cmd);
			break;
		case PCCOM_LASER:
			ProcCmd_Laser(cmd);
     930:	00002c01 	jmpi	2c0 <ProcCmd_Laser>
{
	t_pc_cmd *cmd = (t_pc_cmd*)new_cmd;
	switch (cmd->code)
	{
		case PCCOM_ECHO:
			send_cmd2pc(cmd);
     934:	00008401 	jmpi	840 <send_cmd2pc>
			break;
		case PCCOM_TDC:
			ProcCmd_TDC(cmd);
			break;
		case PCCOM_SAMPLE_LOADER:
			ProcCmd_SampleLoader(cmd);
     938:	00012d01 	jmpi	12d0 <ProcCmd_SampleLoader>
			ProcCmd_Laser(cmd);
			break;
		case PCCOM_ACCELEROMETER: break;
		case PCCOM_STEPPER_IRIS:
		case PCCOM_STEPPER_ATTEN:
			ProcCmd_Motor(cmd);
     93c:	00004841 	jmpi	484 <ProcCmd_Motor>
	{
		case PCCOM_ECHO:
			send_cmd2pc(cmd);
			break;
		case PCCOM_VGA:
			ProcCmd_VGA(cmd);
     940:	00002341 	jmpi	234 <ProcCmd_VGA>
			break;
		case PCCOM_SAMPLE_LOADER:
			ProcCmd_SampleLoader(cmd);
			break;
		case PCCOM_TEST_GENERATOR:
			ProcCmd_PulseGen(cmd);
     944:	0000c1c1 	jmpi	c1c <ProcCmd_PulseGen>
		case PCCOM_STEPPER_ATTEN:
			ProcCmd_Motor(cmd);
			break;
		case PCCOM_AMPLIFIER: break;
		case PCCOM_APD_SOURCE:
			ProcCmd_APD(cmd);
     948:	00003b81 	jmpi	3b8 <ProcCmd_APD>
			break;
		case PCCOM_VGA:
			ProcCmd_VGA(cmd);
			break;
		case PCCOM_TDC:
			ProcCmd_TDC(cmd);
     94c:	00017a01 	jmpi	17a0 <ProcCmd_TDC>

00000950 <rs485_routine>:
	alt_u8 bytes_to_delete = 0; //   ,   .    ,  .
	alt_16 i = 0;
	alt_8 pack_len = -1;
	alt_16 last_start = -1;

	if (c->rx_byte_cnt>(PC_MIN_MSG_SIZE-1)) //       ,    
     950:	2280050b 	ldhu	r10,20(r4)
}



void rs485_routine(t_rs485_config *c)
{
     954:	defff704 	addi	sp,sp,-36
     958:	dcc00315 	stw	r19,12(sp)
     95c:	dfc00815 	stw	ra,32(sp)
     960:	ddc00715 	stw	r23,28(sp)
     964:	dd800615 	stw	r22,24(sp)
     968:	dd400515 	stw	r21,20(sp)
     96c:	dd000415 	stw	r20,16(sp)
     970:	dc800215 	stw	r18,8(sp)
     974:	dc400115 	stw	r17,4(sp)
     978:	dc000015 	stw	r16,0(sp)
	alt_u8 bytes_to_delete = 0; //   ,   .    ,  .
	alt_16 i = 0;
	alt_8 pack_len = -1;
	alt_16 last_start = -1;

	if (c->rx_byte_cnt>(PC_MIN_MSG_SIZE-1)) //       ,    
     97c:	523fffcc 	andi	r8,r10,65535
     980:	008000c4 	movi	r2,3
}



void rs485_routine(t_rs485_config *c)
{
     984:	2027883a 	mov	r19,r4
	alt_u8 bytes_to_delete = 0; //   ,   .    ,  .
	alt_16 i = 0;
	alt_8 pack_len = -1;
	alt_16 last_start = -1;

	if (c->rx_byte_cnt>(PC_MIN_MSG_SIZE-1)) //       ,    
     988:	1200662e 	bgeu	r2,r8,b24 <rs485_routine+0x1d4>
	{
		for (i=0;i<c->rx_byte_cnt-PC_MIN_MSG_SIZE;i++) //       ,       ,      
     98c:	00800104 	movi	r2,4
     990:	40806426 	beq	r8,r2,b24 <rs485_routine+0x1d4>
     994:	04800044 	movi	r18,1
     998:	0021883a 	mov	r16,zero
     99c:	000d883a 	mov	r6,zero
     9a0:	00ffffc4 	movi	r3,-1
     9a4:	0017883a 	mov	r11,zero
		{
			if (c->rx_buf[i] == SIGN) //      
     9a8:	054016c4 	movi	r21,91
				}
				last_start = i;
			}
			else //  ,   .     .  ,        
			{
				if (last_start!=-1) //       ,       
     9ac:	05bfffc4 	movi	r22,-1
					if ((c->rx_byte_cnt-i)>=(c->rx_buf[i+2]+4)) // (c->rx_byte_cnt-i) -      ,  , (c->rx_buf[i+2]+4) -  
						{
							if (i+1>bytes_to_delete)
								bytes_to_delete = i+1; //    , ..     ,   
						}
					else if (c->rx_buf[i+2]>PAYLOAD_LEN_MAX) //  
     9b0:	04400804 	movi	r17,32
     9b4:	00001306 	br	a04 <rs485_routine+0xb4>
				}
				last_start = i;
			}
			else //  ,   .     .  ,        
			{
				if (last_start!=-1) //       ,       
     9b8:	18bfffcc 	andi	r2,r3,65535
     9bc:	10a0001c 	xori	r2,r2,32768
     9c0:	10a00004 	addi	r2,r2,-32768
     9c4:	15800626 	beq	r2,r22,9e0 <rs485_routine+0x90>
				{
					alt_u8 last_dlen = c->rx_buf[last_start+2];
     9c8:	9885883a 	add	r2,r19,r2
					alt_u8 last_msg_end = last_start+4+last_dlen;
     9cc:	10800603 	ldbu	r2,24(r2)
     9d0:	19000104 	addi	r4,r3,4
     9d4:	2085883a 	add	r2,r4,r2
					if (i>last_msg_end) //        ,   
     9d8:	10803fcc 	andi	r2,r2,255
     9dc:	1180030e 	bge	r2,r6,9ec <rs485_routine+0x9c>
						if (i+1>bytes_to_delete)
							bytes_to_delete=i+1;
				}
				else //     
				{
					if (i+1>bytes_to_delete)
     9e0:	58803fcc 	andi	r2,r11,255
     9e4:	30800116 	blt	r6,r2,9ec <rs485_routine+0x9c>
						bytes_to_delete=i+1;
     9e8:	9017883a 	mov	r11,r18
	alt_8 pack_len = -1;
	alt_16 last_start = -1;

	if (c->rx_byte_cnt>(PC_MIN_MSG_SIZE-1)) //       ,    
	{
		for (i=0;i<c->rx_byte_cnt-PC_MIN_MSG_SIZE;i++) //       ,       ,      
     9ec:	523fffcc 	andi	r8,r10,65535
     9f0:	900d883a 	mov	r6,r18
     9f4:	40bfff04 	addi	r2,r8,-4
     9f8:	84000044 	addi	r16,r16,1
     9fc:	94800044 	addi	r18,r18,1
     a00:	3080210e 	bge	r6,r2,a88 <rs485_routine+0x138>
		{
			if (c->rx_buf[i] == SIGN) //      
     a04:	9993883a 	add	r9,r19,r6
     a08:	48800583 	ldbu	r2,22(r9)
     a0c:	8029883a 	mov	r20,r16
     a10:	157fe91e 	bne	r2,r21,9b8 <_gp+0xffff2828>
			{
				pack_len = integrity_check(c->rx_buf+i); //    
     a14:	9c09883a 	add	r4,r19,r16
     a18:	21000584 	addi	r4,r4,22
}

alt_8 integrity_check(alt_u8 *start)
{
	alt_8 pack_len = -1;
	alt_u8 dlen = start[2];
     a1c:	23000083 	ldbu	r12,2(r4)
	alt_u8 crc = calculate_crc(start,dlen+3);
     a20:	61c000c4 	addi	r7,r12,3

alt_u8 calculate_crc(alt_u8 *msg, alt_u8 size)
{
	alt_u8 buffer = 0;
	alt_16 i = 0;
	for (i=0;i<size;i++)
     a24:	39c03fcc 	andi	r7,r7,255
     a28:	38003c26 	beq	r7,zero,b1c <rs485_routine+0x1cc>
     a2c:	0005883a 	mov	r2,zero
     a30:	0007883a 	mov	r3,zero
	register_uart_interrupt(c);
}



void rs485_routine(t_rs485_config *c)
     a34:	208b883a 	add	r5,r4,r2
alt_u8 calculate_crc(alt_u8 *msg, alt_u8 size)
{
	alt_u8 buffer = 0;
	alt_16 i = 0;
	for (i=0;i<size;i++)
		buffer=buffer^msg[i];
     a38:	29400003 	ldbu	r5,0(r5)
     a3c:	10800044 	addi	r2,r2,1
     a40:	1946f03a 	xor	r3,r3,r5

alt_u8 calculate_crc(alt_u8 *msg, alt_u8 size)
{
	alt_u8 buffer = 0;
	alt_16 i = 0;
	for (i=0;i<size;i++)
     a44:	11fffb16 	blt	r2,r7,a34 <_gp+0xffff28a4>
alt_8 integrity_check(alt_u8 *start)
{
	alt_8 pack_len = -1;
	alt_u8 dlen = start[2];
	alt_u8 crc = calculate_crc(start,dlen+3);
	if (crc==start[3+dlen])
     a48:	60803fcc 	andi	r2,r12,255
     a4c:	2085883a 	add	r2,r4,r2
     a50:	108000c3 	ldbu	r2,3(r2)
     a54:	18c03fcc 	andi	r3,r3,255
     a58:	18801f26 	beq	r3,r2,ad8 <rs485_routine+0x188>
     a5c:	05ffffc4 	movi	r23,-1
			if (c->rx_buf[i] == SIGN) //      
			{
				pack_len = integrity_check(c->rx_buf+i); //    
				if (pack_len) //  ,    
				{
					command_handler(c->rx_buf+i);
     a60:	00008d40 	call	8d4 <command_handler>
     a64:	9a80050b 	ldhu	r10,20(r19)
	alt_8 pack_len = -1;
	alt_16 last_start = -1;

	if (c->rx_byte_cnt>(PC_MIN_MSG_SIZE-1)) //       ,    
	{
		for (i=0;i<c->rx_byte_cnt-PC_MIN_MSG_SIZE;i++) //       ,       ,      
     a68:	900d883a 	mov	r6,r18
			{
				pack_len = integrity_check(c->rx_buf+i); //    
				if (pack_len) //  ,    
				{
					command_handler(c->rx_buf+i);
					bytes_to_delete = i+pack_len;
     a6c:	85d7883a 	add	r11,r16,r23
	alt_8 pack_len = -1;
	alt_16 last_start = -1;

	if (c->rx_byte_cnt>(PC_MIN_MSG_SIZE-1)) //       ,    
	{
		for (i=0;i<c->rx_byte_cnt-PC_MIN_MSG_SIZE;i++) //       ,       ,      
     a70:	523fffcc 	andi	r8,r10,65535
     a74:	40bfff04 	addi	r2,r8,-4
			{
				pack_len = integrity_check(c->rx_buf+i); //    
				if (pack_len) //  ,    
				{
					command_handler(c->rx_buf+i);
					bytes_to_delete = i+pack_len;
     a78:	a007883a 	mov	r3,r20
     a7c:	84000044 	addi	r16,r16,1
     a80:	94800044 	addi	r18,r18,1
	alt_8 pack_len = -1;
	alt_16 last_start = -1;

	if (c->rx_byte_cnt>(PC_MIN_MSG_SIZE-1)) //       ,    
	{
		for (i=0;i<c->rx_byte_cnt-PC_MIN_MSG_SIZE;i++) //       ,       ,      
     a84:	30bfdf16 	blt	r6,r2,a04 <_gp+0xffff2874>
				}
			}
		}
	}

	if (bytes_to_delete)
     a88:	58803fcc 	andi	r2,r11,255
     a8c:	10002526 	beq	r2,zero,b24 <rs485_routine+0x1d4>
	{
		c->rx_byte_cnt=c->rx_byte_cnt-bytes_to_delete;
     a90:	59803fcc 	andi	r6,r11,255
     a94:	518dc83a 	sub	r6,r10,r6
		memcpy(c->rx_buf,c->rx_buf+bytes_to_delete,c->rx_byte_cnt);
     a98:	988b883a 	add	r5,r19,r2
		}
	}

	if (bytes_to_delete)
	{
		c->rx_byte_cnt=c->rx_byte_cnt-bytes_to_delete;
     a9c:	9980050d 	sth	r6,20(r19)
		memcpy(c->rx_buf,c->rx_buf+bytes_to_delete,c->rx_byte_cnt);
     aa0:	99000584 	addi	r4,r19,22
     aa4:	29400584 	addi	r5,r5,22
     aa8:	31bfffcc 	andi	r6,r6,65535
	}
}
     aac:	dfc00817 	ldw	ra,32(sp)
     ab0:	ddc00717 	ldw	r23,28(sp)
     ab4:	dd800617 	ldw	r22,24(sp)
     ab8:	dd400517 	ldw	r21,20(sp)
     abc:	dd000417 	ldw	r20,16(sp)
     ac0:	dcc00317 	ldw	r19,12(sp)
     ac4:	dc800217 	ldw	r18,8(sp)
     ac8:	dc400117 	ldw	r17,4(sp)
     acc:	dc000017 	ldw	r16,0(sp)
     ad0:	dec00904 	addi	sp,sp,36
	}

	if (bytes_to_delete)
	{
		c->rx_byte_cnt=c->rx_byte_cnt-bytes_to_delete;
		memcpy(c->rx_buf,c->rx_buf+bytes_to_delete,c->rx_byte_cnt);
     ad4:	00037701 	jmpi	3770 <memcpy>
{
	alt_8 pack_len = -1;
	alt_u8 dlen = start[2];
	alt_u8 crc = calculate_crc(start,dlen+3);
	if (crc==start[3+dlen])
		pack_len = 4+dlen;
     ad8:	65c00104 	addi	r23,r12,4
		for (i=0;i<c->rx_byte_cnt-PC_MIN_MSG_SIZE;i++) //       ,       ,      
		{
			if (c->rx_buf[i] == SIGN) //      
			{
				pack_len = integrity_check(c->rx_buf+i); //    
				if (pack_len) //  ,    
     adc:	b8803fcc 	andi	r2,r23,255
     ae0:	1080201c 	xori	r2,r2,128
     ae4:	10bfe004 	addi	r2,r2,-128
     ae8:	103fdd1e 	bne	r2,zero,a60 <_gp+0xffff28d0>
					bytes_to_delete = i+pack_len;
				}
				else  // ,      
				{
					//,        .      ()      
					if ((c->rx_byte_cnt-i)>=(c->rx_buf[i+2]+4)) // (c->rx_byte_cnt-i) -      ,  , (c->rx_buf[i+2]+4) -  
     aec:	48800603 	ldbu	r2,24(r9)
     af0:	4191c83a 	sub	r8,r8,r6
     af4:	10c000c4 	addi	r3,r2,3
     af8:	1a000116 	blt	r3,r8,b00 <rs485_routine+0x1b0>
						{
							if (i+1>bytes_to_delete)
								bytes_to_delete = i+1; //    , ..     ,   
						}
					else if (c->rx_buf[i+2]>PAYLOAD_LEN_MAX) //  
     afc:	8880052e 	bgeu	r17,r2,b14 <rs485_routine+0x1c4>
						{
							if (i+1>bytes_to_delete)
     b00:	58803fcc 	andi	r2,r11,255
     b04:	30800316 	blt	r6,r2,b14 <rs485_routine+0x1c4>
								bytes_to_delete = i+1; //    , ..     ,   
     b08:	9017883a 	mov	r11,r18
     b0c:	a007883a 	mov	r3,r20
     b10:	003fb606 	br	9ec <_gp+0xffff285c>
							if (i+1>bytes_to_delete)
								bytes_to_delete = i+1; //    , ..     ,   
						}
					else if (c->rx_buf[i+2]>PAYLOAD_LEN_MAX) //  
						{
							if (i+1>bytes_to_delete)
     b14:	a007883a 	mov	r3,r20
     b18:	003fb406 	br	9ec <_gp+0xffff285c>
	return pack_len;
}

alt_u8 calculate_crc(alt_u8 *msg, alt_u8 size)
{
	alt_u8 buffer = 0;
     b1c:	0007883a 	mov	r3,zero
     b20:	003fc906 	br	a48 <_gp+0xffff28b8>
	if (bytes_to_delete)
	{
		c->rx_byte_cnt=c->rx_byte_cnt-bytes_to_delete;
		memcpy(c->rx_buf,c->rx_buf+bytes_to_delete,c->rx_byte_cnt);
	}
}
     b24:	dfc00817 	ldw	ra,32(sp)
     b28:	ddc00717 	ldw	r23,28(sp)
     b2c:	dd800617 	ldw	r22,24(sp)
     b30:	dd400517 	ldw	r21,20(sp)
     b34:	dd000417 	ldw	r20,16(sp)
     b38:	dcc00317 	ldw	r19,12(sp)
     b3c:	dc800217 	ldw	r18,8(sp)
     b40:	dc400117 	ldw	r17,4(sp)
     b44:	dc000017 	ldw	r16,0(sp)
     b48:	dec00904 	addi	sp,sp,36
     b4c:	f800283a 	ret

00000b50 <com_routine>:
	rs485_init(&com);
}

void com_routine()
{
	rs485_routine(&com);
     b50:	01000034 	movhi	r4,0
     b54:	211a3104 	addi	r4,r4,26820
     b58:	00009501 	jmpi	950 <rs485_routine>

00000b5c <init_pulse_generator>:
test_pulse_parameter test_pulses[6];

void ProcCmd_PulseGen (t_pc_cmd *cmd);

void init_pulse_generator()
{
     b5c:	00800034 	movhi	r2,0
     b60:	109a5784 	addi	r2,r2,26974
     b64:	10c00084 	addi	r3,r2,2

test_pulse_parameter test_pulses[6];

void ProcCmd_PulseGen (t_pc_cmd *cmd);

void init_pulse_generator()
     b68:	11800904 	addi	r6,r2,36
{
	unsigned char i = 0;
	for (i=0;i<6;i++)
	{
	   test_pulses[i].len = 2;
     b6c:	01400084 	movi	r5,2
	   test_pulses[i].enable = 1;
     b70:	01000044 	movi	r4,1
void init_pulse_generator()
{
	unsigned char i = 0;
	for (i=0;i<6;i++)
	{
	   test_pulses[i].len = 2;
     b74:	1140000d 	sth	r5,0(r2)
	   test_pulses[i].enable = 1;
     b78:	19000005 	stb	r4,0(r3)
     b7c:	10800184 	addi	r2,r2,6
     b80:	18c00184 	addi	r3,r3,6
void ProcCmd_PulseGen (t_pc_cmd *cmd);

void init_pulse_generator()
{
	unsigned char i = 0;
	for (i=0;i<6;i++)
     b84:	11bffb1e 	bne	r2,r6,b74 <_gp+0xffff29e4>
	{
	   test_pulses[i].len = 2;
	   test_pulses[i].enable = 1;
	}
	test_pulses[0].delay=10;
     b88:	00800034 	movhi	r2,0
     b8c:	109a5704 	addi	r2,r2,26972
     b90:	00c00284 	movi	r3,10
     b94:	10c0000d 	sth	r3,0(r2)
	test_pulses[1].delay=30;
     b98:	00c00784 	movi	r3,30
     b9c:	10c0018d 	sth	r3,6(r2)
	test_pulses[2].delay=70;
     ba0:	00c01184 	movi	r3,70
     ba4:	10c0030d 	sth	r3,12(r2)
	test_pulses[3].delay=130;
     ba8:	00c02084 	movi	r3,130
     bac:	10c0048d 	sth	r3,18(r2)
	test_pulses[4].delay=250;
     bb0:	00c03e84 	movi	r3,250
     bb4:	10c0060d 	sth	r3,24(r2)
	test_pulses[5].delay=370;
     bb8:	00c05c84 	movi	r3,370
     bbc:	10c0078d 	sth	r3,30(r2)
     bc0:	f800283a 	ret

00000bc4 <generate_test_pulses>:
	else
		generate_test_pulses();
}

void generate_test_pulses()
{
     bc4:	00800034 	movhi	r2,0
     bc8:	109a5704 	addi	r2,r2,26972
     bcc:	11000104 	addi	r4,r2,4
     bd0:	00e5b914 	movui	r3,38628
	unsigned int data;
	unsigned int buf;
	unsigned char i = 0;
	for (i=0;i<6;i++)
     bd4:	0225bf14 	movui	r8,38652
	{
	  data=test_pulses[i].delay;
	  buf=(test_pulses[i].len<<16)&0x7FFF0000;
     bd8:	1140008b 	ldhu	r5,2(r2)
	unsigned int data;
	unsigned int buf;
	unsigned char i = 0;
	for (i=0;i<6;i++)
	{
	  data=test_pulses[i].delay;
     bdc:	11c0000b 	ldhu	r7,0(r2)
	  buf=(test_pulses[i].len<<16)&0x7FFF0000;
	  data|=buf;
	  if (test_pulses[i].enable)
     be0:	21800003 	ldbu	r6,0(r4)
	unsigned int buf;
	unsigned char i = 0;
	for (i=0;i<6;i++)
	{
	  data=test_pulses[i].delay;
	  buf=(test_pulses[i].len<<16)&0x7FFF0000;
     be4:	280a943a 	slli	r5,r5,16
     be8:	295fffec 	andhi	r5,r5,32767
	  data|=buf;
     bec:	29cab03a 	or	r5,r5,r7
	  if (test_pulses[i].enable)
     bf0:	30000126 	beq	r6,zero,bf8 <generate_test_pulses+0x34>
	  data|=0x80000000;
     bf4:	29600034 	orhi	r5,r5,32768
	  IOWR(PULSE_GENERATOR_BASE,i+1,data); //pulses parameters
     bf8:	19400035 	stwio	r5,0(r3)
     bfc:	18c00104 	addi	r3,r3,4
     c00:	10800184 	addi	r2,r2,6
     c04:	21000184 	addi	r4,r4,6
void generate_test_pulses()
{
	unsigned int data;
	unsigned int buf;
	unsigned char i = 0;
	for (i=0;i<6;i++)
     c08:	1a3ff31e 	bne	r3,r8,bd8 <_gp+0xffff2a48>
	  data|=buf;
	  if (test_pulses[i].enable)
	  data|=0x80000000;
	  IOWR(PULSE_GENERATOR_BASE,i+1,data); //pulses parameters
	}
	IOWR(PULSE_GENERATOR_BASE,0,0x1); //control, start
     c0c:	00a5b814 	movui	r2,38624
     c10:	00c00044 	movi	r3,1
     c14:	10c00035 	stwio	r3,0(r2)
     c18:	f800283a 	ret

00000c1c <ProcCmd_PulseGen>:

void ProcCmd_PulseGen (t_pc_cmd *cmd)
{
	unsigned char pulsindex = cmd->data[0];
	unsigned short buf;
	if (pulsindex < 6)
     c1c:	208000c3 	ldbu	r2,3(r4)
     c20:	00c00144 	movi	r3,5
     c24:	18801136 	bltu	r3,r2,c6c <ProcCmd_PulseGen+0x50>
	{
		test_pulses[pulsindex].enable=cmd->data[1];
     c28:	108001a4 	muli	r2,r2,6
     c2c:	20c00103 	ldbu	r3,4(r4)
     c30:	01400034 	movhi	r5,0
     c34:	295a5704 	addi	r5,r5,26972
     c38:	2885883a 	add	r2,r5,r2
     c3c:	10c00105 	stb	r3,4(r2)
		buf=(cmd->data[3]<<8)|cmd->data[2];
     c40:	20c00183 	ldbu	r3,6(r4)
     c44:	21400143 	ldbu	r5,5(r4)
     c48:	1806923a 	slli	r3,r3,8
     c4c:	1946b03a 	or	r3,r3,r5
		test_pulses[pulsindex].len=buf;
     c50:	10c0008d 	sth	r3,2(r2)
		buf=(cmd->data[5]<<8)|cmd->data[4];
     c54:	20c00203 	ldbu	r3,8(r4)
     c58:	210001c3 	ldbu	r4,7(r4)
     c5c:	1806923a 	slli	r3,r3,8
     c60:	1906b03a 	or	r3,r3,r4
		test_pulses[pulsindex].delay=buf;
     c64:	10c0000d 	sth	r3,0(r2)
     c68:	f800283a 	ret
	}
	else
		generate_test_pulses();
     c6c:	0000bc41 	jmpi	bc4 <generate_test_pulses>

00000c70 <ProcCmd_Rangefinder>:
  .
 */


void ProcCmd_Rangefinder(t_pc_cmd *cmd)
{
     c70:	deffff04 	addi	sp,sp,-4
     c74:	dfc00015 	stw	ra,0(sp)
	switch (cmd->data[0])
     c78:	208000c3 	ldbu	r2,3(r4)
     c7c:	00c00044 	movi	r3,1
     c80:	10c01626 	beq	r2,r3,cdc <ProcCmd_Rangefinder+0x6c>
     c84:	10000726 	beq	r2,zero,ca4 <ProcCmd_Rangefinder+0x34>
     c88:	01000084 	movi	r4,2
     c8c:	1100021e 	bne	r2,r4,c98 <ProcCmd_Rangefinder+0x28>
		{
			IOWR_ALTERA_AVALON_PIO_DATA(SYSTEM_MODE_BASE, 0);
		} break;
	case dev_sys_mux_switch_normal:
		{
			IOWR_ALTERA_AVALON_PIO_DATA(SYSTEM_MODE_BASE, 1);
     c90:	00a59814 	movui	r2,38496
     c94:	10c00035 	stwio	r3,0(r2)
		} break;
	}
}
     c98:	dfc00017 	ldw	ra,0(sp)
     c9c:	dec00104 	addi	sp,sp,4
     ca0:	f800283a 	ret
{
	switch (cmd->data[0])
	{
	case dev_start_meas:
		{
			tdc_start_measure(); // TDC
     ca4:	00017080 	call	1708 <tdc_start_measure>
			generate_charge_pulse(332000,0); //     1866  = 373200
     ca8:	01000174 	movhi	r4,5
     cac:	21043804 	addi	r4,r4,4320
     cb0:	000b883a 	mov	r5,zero
     cb4:	00002640 	call	264 <generate_charge_pulse>
			generate_laser_pulse(280000, 42000); //350000     1600  = 320   210  = 42000
     cb8:	01000134 	movhi	r4,4
     cbc:	21117004 	addi	r4,r4,17856
     cc0:	01690414 	movui	r5,42000
     cc4:	00002440 	call	244 <generate_laser_pulse>
			generate_tdc_start_pulse(100 ,42000); //   TDC
     cc8:	01001904 	movi	r4,100
     ccc:	01690414 	movui	r5,42000
	case dev_sys_mux_switch_normal:
		{
			IOWR_ALTERA_AVALON_PIO_DATA(SYSTEM_MODE_BASE, 1);
		} break;
	}
}
     cd0:	dfc00017 	ldw	ra,0(sp)
     cd4:	dec00104 	addi	sp,sp,4
	case dev_start_meas:
		{
			tdc_start_measure(); // TDC
			generate_charge_pulse(332000,0); //     1866  = 373200
			generate_laser_pulse(280000, 42000); //350000     1600  = 320   210  = 42000
			generate_tdc_start_pulse(100 ,42000); //   TDC
     cd8:	00002841 	jmpi	284 <generate_tdc_start_pulse>
		}
		break;
	case dev_sys_mux_switch_test:
		{
			IOWR_ALTERA_AVALON_PIO_DATA(SYSTEM_MODE_BASE, 0);
     cdc:	00a59814 	movui	r2,38496
     ce0:	10000035 	stwio	zero,0(r2)
	case dev_sys_mux_switch_normal:
		{
			IOWR_ALTERA_AVALON_PIO_DATA(SYSTEM_MODE_BASE, 1);
		} break;
	}
}
     ce4:	dfc00017 	ldw	ra,0(sp)
     ce8:	dec00104 	addi	sp,sp,4
     cec:	f800283a 	ret

00000cf0 <calibrate_photodetector>:

void calibrate_photodetector()
{
	next_state = st_sample_recording;
     cf0:	00800044 	movi	r2,1
     cf4:	d0a1c1c5 	stb	r2,-30969(gp)
     cf8:	f800283a 	ret

00000cfc <compute_rms>:
			} break;
	}
}

alt_u8 compute_rms()
{
     cfc:	deff7804 	addi	sp,sp,-544
	alt_u8 *sample = get_sample(0);
     d00:	0009883a 	mov	r4,zero
			} break;
	}
}

alt_u8 compute_rms()
{
     d04:	dd808615 	stw	r22,536(sp)
     d08:	dd408515 	stw	r21,532(sp)
     d0c:	dd008415 	stw	r20,528(sp)
     d10:	dcc08315 	stw	r19,524(sp)
     d14:	dc808215 	stw	r18,520(sp)
     d18:	dc408115 	stw	r17,516(sp)
     d1c:	dc008015 	stw	r16,512(sp)
     d20:	dfc08715 	stw	ra,540(sp)
	alt_u8 *sample = get_sample(0);
     d24:	00013180 	call	1318 <get_sample>
     d28:	1025883a 	mov	r18,r2
     d2c:	d829883a 	mov	r20,sp
     d30:	d82b883a 	mov	r21,sp
     d34:	05800144 	movi	r22,5
     d38:	04ffff04 	movi	r19,-4
	for (i=0;i<256;i++)
	{
		sum = 0;
		for (fi=i-half_filter;fi<=i+half_filter;fi++)
		{
			if ((fi>=0)&&(fi<=255))
     d3c:	04003fc4 	movi	r16,255
	alt_u16 sum = 0;
	float rms = 0.0;
	alt_u16 avg_signal = 0;


	for (i=0;i<256;i++)
     d40:	04403f04 	movi	r17,252
			next_state=st_idle;
			} break;
	}
}

alt_u8 compute_rms()
     d44:	98800204 	addi	r2,r19,8


	for (i=0;i<256;i++)
	{
		sum = 0;
		for (fi=i-half_filter;fi<=i+half_filter;fi++)
     d48:	9807883a 	mov	r3,r19
     d4c:	14c05616 	blt	r2,r19,ea8 <compute_rms+0x1ac>
     d50:	b23fffcc 	andi	r8,r22,65535
     d54:	4220001c 	xori	r8,r8,32768
			next_state=st_idle;
			} break;
	}
}

alt_u8 compute_rms()
     d58:	9c8b883a 	add	r5,r19,r18
	alt_u16 avg_signal = 0;


	for (i=0;i<256;i++)
	{
		sum = 0;
     d5c:	0009883a 	mov	r4,zero
     d60:	42200004 	addi	r8,r8,-32768
		for (fi=i-half_filter;fi<=i+half_filter;fi++)
		{
			if ((fi>=0)&&(fi<=255))
     d64:	19ffffcc 	andi	r7,r3,65535


	for (i=0;i<256;i++)
	{
		sum = 0;
		for (fi=i-half_filter;fi<=i+half_filter;fi++)
     d68:	18c00044 	addi	r3,r3,1
     d6c:	19bfffcc 	andi	r6,r3,65535
     d70:	31a0001c 	xori	r6,r6,32768
     d74:	31a00004 	addi	r6,r6,-32768
		{
			if ((fi>=0)&&(fi<=255))
     d78:	81c00236 	bltu	r16,r7,d84 <compute_rms+0x88>
				sum+=sample[fi];
     d7c:	28800003 	ldbu	r2,0(r5)
     d80:	1109883a 	add	r4,r2,r4
     d84:	29400044 	addi	r5,r5,1


	for (i=0;i<256;i++)
	{
		sum = 0;
		for (fi=i-half_filter;fi<=i+half_filter;fi++)
     d88:	323ff61e 	bne	r6,r8,d64 <_gp+0xffff2bd4>
     d8c:	213fffcc 	andi	r4,r4,65535
     d90:	01400244 	movi	r5,9
     d94:	0002e3c0 	call	2e3c <__divsi3>
		{
			if ((fi>=0)&&(fi<=255))
				sum+=sample[fi];
		}
		sum=sum/filter_size;
		filtered_sample[i]=sum;
     d98:	a880000d 	sth	r2,0(r21)
     d9c:	9cc00044 	addi	r19,r19,1
     da0:	ad400084 	addi	r21,r21,2
     da4:	b5800044 	addi	r22,r22,1
	alt_u16 sum = 0;
	float rms = 0.0;
	alt_u16 avg_signal = 0;


	for (i=0;i<256;i++)
     da8:	9c7fe61e 	bne	r19,r17,d44 <_gp+0xffff2bb4>
			next_state=st_idle;
			} break;
	}
}

alt_u8 compute_rms()
     dac:	91804004 	addi	r6,r18,256
     db0:	a005883a 	mov	r2,r20
     db4:	0009883a 	mov	r4,zero
		sum=sum/filter_size;
		filtered_sample[i]=sum;
	}
	for (i=0;i<256;i++)
	{
		filtered_sample[i]=sample[i]-filtered_sample[i];
     db8:	91400003 	ldbu	r5,0(r18)
     dbc:	10c0000b 	ldhu	r3,0(r2)
     dc0:	10800084 	addi	r2,r2,2
     dc4:	94800044 	addi	r18,r18,1
     dc8:	28c7c83a 	sub	r3,r5,r3
     dcc:	10ffff8d 	sth	r3,-2(r2)
		avg_signal += filtered_sample[i];
     dd0:	1909883a 	add	r4,r3,r4
				sum+=sample[fi];
		}
		sum=sum/filter_size;
		filtered_sample[i]=sum;
	}
	for (i=0;i<256;i++)
     dd4:	91bff81e 	bne	r18,r6,db8 <_gp+0xffff2c28>
	{
		filtered_sample[i]=sample[i]-filtered_sample[i];
		avg_signal += filtered_sample[i];
	}
	avg_signal=avg_signal/256; //   0
     dd8:	213fffcc 	andi	r4,r4,65535
     ddc:	202cd23a 	srli	r22,r4,8
			next_state=st_idle;
			} break;
	}
}

alt_u8 compute_rms()
     de0:	dd408004 	addi	r21,sp,512
	alt_u8 *sample = get_sample(0);
	alt_16 filtered_sample[256];
	alt_16 i = 0;
	alt_16 fi = 0;
	alt_u16 sum = 0;
	float rms = 0.0;
     de4:	0021883a 	mov	r16,zero
	}
	avg_signal=avg_signal/256; //   0

	for (i=0;i<256;i++)
	{
		rms+=pow(filtered_sample[i]-avg_signal,2);
     de8:	a100000f 	ldh	r4,0(r20)
     dec:	a5000084 	addi	r20,r20,2
     df0:	2589c83a 	sub	r4,r4,r22
     df4:	0002c5c0 	call	2c5c <__floatsidf>
     df8:	8009883a 	mov	r4,r16
     dfc:	1027883a 	mov	r19,r2
     e00:	1825883a 	mov	r18,r3
     e04:	000231c0 	call	231c <__extendsfdf2>
     e08:	9809883a 	mov	r4,r19
     e0c:	900b883a 	mov	r5,r18
     e10:	980d883a 	mov	r6,r19
     e14:	900f883a 	mov	r7,r18
     e18:	1821883a 	mov	r16,r3
     e1c:	1023883a 	mov	r17,r2
     e20:	00027680 	call	2768 <__muldf3>
     e24:	800b883a 	mov	r5,r16
     e28:	8809883a 	mov	r4,r17
     e2c:	100d883a 	mov	r6,r2
     e30:	180f883a 	mov	r7,r3
     e34:	00026b40 	call	26b4 <__adddf3>
     e38:	1009883a 	mov	r4,r2
     e3c:	180b883a 	mov	r5,r3
     e40:	0002d680 	call	2d68 <__truncdfsf2>
     e44:	1021883a 	mov	r16,r2
		filtered_sample[i]=sample[i]-filtered_sample[i];
		avg_signal += filtered_sample[i];
	}
	avg_signal=avg_signal/256; //   0

	for (i=0;i<256;i++)
     e48:	a57fe71e 	bne	r20,r21,de8 <_gp+0xffff2c58>
	{
		rms+=pow(filtered_sample[i]-avg_signal,2);
	}
	rms=rms/256;
     e4c:	014ee034 	movhi	r5,15232
     e50:	1009883a 	mov	r4,r2
     e54:	000209c0 	call	209c <__mulsf3>
	rms=sqrt(rms);
     e58:	1009883a 	mov	r4,r2
     e5c:	000231c0 	call	231c <__extendsfdf2>
     e60:	1009883a 	mov	r4,r2
     e64:	180b883a 	mov	r5,r3
     e68:	00019540 	call	1954 <sqrt>
     e6c:	180b883a 	mov	r5,r3
     e70:	1009883a 	mov	r4,r2
     e74:	0002d680 	call	2d68 <__truncdfsf2>
	return (alt_u8)rms;
     e78:	1009883a 	mov	r4,r2
     e7c:	0001d940 	call	1d94 <__fixunssfsi>
}
     e80:	dfc08717 	ldw	ra,540(sp)
     e84:	dd808617 	ldw	r22,536(sp)
     e88:	dd408517 	ldw	r21,532(sp)
     e8c:	dd008417 	ldw	r20,528(sp)
     e90:	dcc08317 	ldw	r19,524(sp)
     e94:	dc808217 	ldw	r18,520(sp)
     e98:	dc408117 	ldw	r17,516(sp)
     e9c:	dc008017 	ldw	r16,512(sp)
     ea0:	dec08804 	addi	sp,sp,544
     ea4:	f800283a 	ret


	for (i=0;i<256;i++)
	{
		sum = 0;
		for (fi=i-half_filter;fi<=i+half_filter;fi++)
     ea8:	0005883a 	mov	r2,zero
     eac:	003fba06 	br	d98 <_gp+0xffff2c08>

00000eb0 <calibrating_iteration>:
	rms=sqrt(rms);
	return (alt_u8)rms;
}

void calibrating_iteration()
{
     eb0:	deffff04 	addi	sp,sp,-4
     eb4:	dfc00015 	stw	ra,0(sp)
	G_noise_rms = compute_rms();
     eb8:	0000cfc0 	call	cfc <compute_rms>
     ebc:	d0a1c245 	stb	r2,-30967(gp)
	if (G_noise_rms<noise_rms_dest-noise_toler)
     ec0:	00c00144 	movi	r3,5
     ec4:	10803fcc 	andi	r2,r2,255
     ec8:	1880130e 	bge	r3,r2,f18 <calibrating_iteration+0x68>
	{
		current_amp_gain++;
		set_VGA_gain(current_amp_gain);
	}
	else if (G_noise_rms>noise_rms_dest+noise_toler)
     ecc:	00c00684 	movi	r3,26
     ed0:	18801716 	blt	r3,r2,f30 <calibrating_iteration+0x80>
		current_amp_gain--;
		set_VGA_gain(current_amp_gain);
	}
	else
	{
		calibrating_complete=1;
     ed4:	00800044 	movi	r2,1
     ed8:	d0a1c105 	stb	r2,-30972(gp)
	}

	iteration_cnt++;
     edc:	d0a1c00b 	ldhu	r2,-30976(gp)
	if (iteration_cnt>64)
     ee0:	01001004 	movi	r4,64
	else
	{
		calibrating_complete=1;
	}

	iteration_cnt++;
     ee4:	10800044 	addi	r2,r2,1
	if (iteration_cnt>64)
     ee8:	10ffffcc 	andi	r3,r2,65535
     eec:	20c0062e 	bgeu	r4,r3,f08 <calibrating_iteration+0x58>
	{
		iteration_cnt=0;
		calibrating_complete=1;
     ef0:	00800044 	movi	r2,1
	}

	iteration_cnt++;
	if (iteration_cnt>64)
	{
		iteration_cnt=0;
     ef4:	d021c00d 	sth	zero,-30976(gp)
		calibrating_complete=1;
     ef8:	d0a1c105 	stb	r2,-30972(gp)
	}

}
     efc:	dfc00017 	ldw	ra,0(sp)
     f00:	dec00104 	addi	sp,sp,4
     f04:	f800283a 	ret
	else
	{
		calibrating_complete=1;
	}

	iteration_cnt++;
     f08:	d0a1c00d 	sth	r2,-30976(gp)
	{
		iteration_cnt=0;
		calibrating_complete=1;
	}

}
     f0c:	dfc00017 	ldw	ra,0(sp)
     f10:	dec00104 	addi	sp,sp,4
     f14:	f800283a 	ret
void calibrating_iteration()
{
	G_noise_rms = compute_rms();
	if (G_noise_rms<noise_rms_dest-noise_toler)
	{
		current_amp_gain++;
     f18:	d0a1c083 	ldbu	r2,-30974(gp)
     f1c:	10800044 	addi	r2,r2,1
		set_VGA_gain(current_amp_gain);
     f20:	11003fcc 	andi	r4,r2,255
void calibrating_iteration()
{
	G_noise_rms = compute_rms();
	if (G_noise_rms<noise_rms_dest-noise_toler)
	{
		current_amp_gain++;
     f24:	d0a1c085 	stb	r2,-30974(gp)
		set_VGA_gain(current_amp_gain);
     f28:	00002040 	call	204 <set_VGA_gain>
     f2c:	003feb06 	br	edc <_gp+0xffff2d4c>
	}
	else if (G_noise_rms>noise_rms_dest+noise_toler)
	{
		current_amp_gain--;
     f30:	d0a1c083 	ldbu	r2,-30974(gp)
     f34:	10bfffc4 	addi	r2,r2,-1
		set_VGA_gain(current_amp_gain);
     f38:	11003fcc 	andi	r4,r2,255
		current_amp_gain++;
		set_VGA_gain(current_amp_gain);
	}
	else if (G_noise_rms>noise_rms_dest+noise_toler)
	{
		current_amp_gain--;
     f3c:	d0a1c085 	stb	r2,-30974(gp)
		set_VGA_gain(current_amp_gain);
     f40:	00002040 	call	204 <set_VGA_gain>
     f44:	003fe506 	br	edc <_gp+0xffff2d4c>

00000f48 <photodetector_calibrating_routine>:
{
	next_state = st_sample_recording;
}

void photodetector_calibrating_routine()
{
     f48:	defffe04 	addi	sp,sp,-8
     f4c:	dc000015 	stw	r16,0(sp)
		start_sample_record(64);
		sample_ready=0;
		rms_ready=0;
	}

	if (state == st_sample_recording) //delay
     f50:	d421c203 	ldbu	r16,-30968(gp)
{
	next_state = st_sample_recording;
}

void photodetector_calibrating_routine()
{
     f54:	dfc00115 	stw	ra,4(sp)
		start_sample_record(64);
		sample_ready=0;
		rms_ready=0;
	}

	if (state == st_sample_recording) //delay
     f58:	00800044 	movi	r2,1
     f5c:	80801826 	beq	r16,r2,fc0 <photodetector_calibrating_routine+0x78>
			sample_ready = 1;
		}
	}
	else
	{
		record_delay_cnt = 0;
     f60:	d021c0c5 	stb	zero,-30973(gp)
	}

	//fsm
	state=next_state;
     f64:	d0a1c1c3 	ldbu	r2,-30969(gp)
	switch(state)
     f68:	04000044 	movi	r16,1
	{
		record_delay_cnt = 0;
	}

	//fsm
	state=next_state;
     f6c:	d0a1c205 	stb	r2,-30968(gp)
	switch(state)
     f70:	14001d26 	beq	r2,r16,fe8 <photodetector_calibrating_routine+0xa0>
     f74:	1000051e 	bne	r2,zero,f8c <photodetector_calibrating_routine+0x44>
			  }

			} break;
		default:
			{
			next_state=st_idle;
     f78:	d021c1c5 	stb	zero,-30969(gp)
			} break;
	}
}
     f7c:	dfc00117 	ldw	ra,4(sp)
     f80:	dc000017 	ldw	r16,0(sp)
     f84:	dec00204 	addi	sp,sp,8
     f88:	f800283a 	ret
		record_delay_cnt = 0;
	}

	//fsm
	state=next_state;
	switch(state)
     f8c:	00c00084 	movi	r3,2
     f90:	10c01e26 	beq	r2,r3,100c <photodetector_calibrating_routine+0xc4>
     f94:	00c000c4 	movi	r3,3
     f98:	10fff71e 	bne	r2,r3,f78 <_gp+0xffff2de8>
				next_state = st_calibrating;
				rms_ready = 1;
			} break;
		case st_calibrating:
			{
			  calibrating_iteration();
     f9c:	0000eb00 	call	eb0 <calibrating_iteration>

			  if (calibrating_complete)
     fa0:	d0a1c103 	ldbu	r2,-30972(gp)
     fa4:	10002126 	beq	r2,zero,102c <photodetector_calibrating_routine+0xe4>
			  {
				  calibrating_complete=0;
     fa8:	d021c105 	stb	zero,-30972(gp)
				  next_state=st_idle;
     fac:	d021c1c5 	stb	zero,-30969(gp)
		default:
			{
			next_state=st_idle;
			} break;
	}
}
     fb0:	dfc00117 	ldw	ra,4(sp)
     fb4:	dc000017 	ldw	r16,0(sp)
     fb8:	dec00204 	addi	sp,sp,8
     fbc:	f800283a 	ret
		rms_ready=0;
	}

	if (state == st_sample_recording) //delay
	{
		record_delay_cnt++;
     fc0:	d0a1c0c3 	ldbu	r2,-30973(gp)
		if (record_delay_cnt>=10)
     fc4:	01000244 	movi	r4,9
		rms_ready=0;
	}

	if (state == st_sample_recording) //delay
	{
		record_delay_cnt++;
     fc8:	10800044 	addi	r2,r2,1
		if (record_delay_cnt>=10)
     fcc:	10c03fcc 	andi	r3,r2,255
     fd0:	20c01b36 	bltu	r4,r3,1040 <photodetector_calibrating_routine+0xf8>
		rms_ready=0;
	}

	if (state == st_sample_recording) //delay
	{
		record_delay_cnt++;
     fd4:	d0a1c0c5 	stb	r2,-30973(gp)
	{
		record_delay_cnt = 0;
	}

	//fsm
	state=next_state;
     fd8:	d0a1c1c3 	ldbu	r2,-30969(gp)
	switch(state)
     fdc:	04000044 	movi	r16,1
	{
		record_delay_cnt = 0;
	}

	//fsm
	state=next_state;
     fe0:	d0a1c205 	stb	r2,-30968(gp)
	switch(state)
     fe4:	143fe31e 	bne	r2,r16,f74 <_gp+0xffff2de4>
			{
				next_state = st_idle;
			} break;
		case st_sample_recording:
			{
			  if (sample_ready)
     fe8:	d0a1c183 	ldbu	r2,-30970(gp)
     fec:	103fe326 	beq	r2,zero,f7c <_gp+0xffff2dec>
			  {
				  sample_ready = 0;
				  next_state = st_computing_rms;
     ff0:	00800084 	movi	r2,2
			} break;
		case st_sample_recording:
			{
			  if (sample_ready)
			  {
				  sample_ready = 0;
     ff4:	d021c185 	stb	zero,-30970(gp)
				  next_state = st_computing_rms;
     ff8:	d0a1c1c5 	stb	r2,-30969(gp)
		default:
			{
			next_state=st_idle;
			} break;
	}
}
     ffc:	dfc00117 	ldw	ra,4(sp)
    1000:	dc000017 	ldw	r16,0(sp)
    1004:	dec00204 	addi	sp,sp,8
    1008:	f800283a 	ret
				  next_state = st_computing_rms;
			  }
			} break;
		case st_computing_rms:
			{
				compute_rms();
    100c:	0000cfc0 	call	cfc <compute_rms>
				next_state = st_calibrating;
    1010:	008000c4 	movi	r2,3
    1014:	d0a1c1c5 	stb	r2,-30969(gp)
				rms_ready = 1;
    1018:	d421c145 	stb	r16,-30971(gp)
		default:
			{
			next_state=st_idle;
			} break;
	}
}
    101c:	dfc00117 	ldw	ra,4(sp)
    1020:	dc000017 	ldw	r16,0(sp)
    1024:	dec00204 	addi	sp,sp,8
    1028:	f800283a 	ret
				  calibrating_complete=0;
				  next_state=st_idle;
			  }
			  else
			  {
				  next_state = st_sample_recording;
    102c:	d421c1c5 	stb	r16,-30969(gp)
		default:
			{
			next_state=st_idle;
			} break;
	}
}
    1030:	dfc00117 	ldw	ra,4(sp)
    1034:	dc000017 	ldw	r16,0(sp)
    1038:	dec00204 	addi	sp,sp,8
    103c:	f800283a 	ret
	if (state == st_sample_recording) //delay
	{
		record_delay_cnt++;
		if (record_delay_cnt>=10)
		{
			record_delay_cnt=0;
    1040:	d021c0c5 	stb	zero,-30973(gp)
			stop_sample_record();
    1044:	00010680 	call	1068 <stop_sample_record>
			sample_ready = 1;
    1048:	d421c185 	stb	r16,-30970(gp)
    104c:	003fc506 	br	f64 <_gp+0xffff2dd4>

00001050 <start_sample_record>:
}

void start_sample_record(unsigned char rec_delay)
{
	unsigned short ctrl = rec_delay;
	ctrl=(ctrl<<1)|BIT0;
    1050:	21003fcc 	andi	r4,r4,255
	IOWR(SAMPLE_LOADER_BASE,CONTROL_REG,ctrl);
    1054:	2109883a 	add	r4,r4,r4
    1058:	21000054 	ori	r4,r4,1
    105c:	00a58014 	movui	r2,38400
    1060:	11000035 	stwio	r4,0(r2)
    1064:	f800283a 	ret

00001068 <stop_sample_record>:
}

void stop_sample_record()
{
	unsigned short ctrl = 0;
	IOWR(SAMPLE_LOADER_BASE,CONTROL_REG,ctrl);
    1068:	00a58014 	movui	r2,38400
    106c:	10000035 	stwio	zero,0(r2)
    1070:	f800283a 	ret

00001074 <reset_ram_buffers>:
}

void reset_ram_buffers()
{
    1074:	defffe04 	addi	sp,sp,-8
    1078:	dc000015 	stw	r16,0(sp)
    107c:	dfc00115 	stw	ra,4(sp)
   IOWR(SAMPLE_LOADER_BASE,CONTROL_REG,0x3f<<9);
    1080:	04258014 	movui	r16,38400
    1084:	009f8004 	movi	r2,32256
    1088:	80800035 	stwio	r2,0(r16)
   memset(selected_sample,0,sizeof(selected_sample));
    108c:	01000034 	movhi	r4,0
    1090:	211bea04 	addi	r4,r4,28584
    1094:	000b883a 	mov	r5,zero
    1098:	01804004 	movi	r6,256
    109c:	00038680 	call	3868 <memset>
   IOWR(SAMPLE_LOADER_BASE,CONTROL_REG,0);
    10a0:	80000035 	stwio	zero,0(r16)
}
    10a4:	dfc00117 	ldw	ra,4(sp)
    10a8:	dc000017 	ldw	r16,0(sp)
    10ac:	dec00204 	addi	sp,sp,8
    10b0:	f800283a 	ret

000010b4 <send_sample>:

void send_sample(unsigned char sample)
{
    10b4:	deffee04 	addi	sp,sp,-72
    10b8:	21003fcc 	andi	r4,r4,255
    10bc:	ddc01015 	stw	r23,64(sp)
    10c0:	25c041a4 	muli	r23,r4,262
    10c4:	dd800f15 	stw	r22,60(sp)
    10c8:	dd400e15 	stw	r21,56(sp)
    10cc:	dd000d15 	stw	r20,52(sp)
    10d0:	dcc00c15 	stw	r19,48(sp)
    10d4:	dc800b15 	stw	r18,44(sp)
    10d8:	dc400a15 	stw	r17,40(sp)
    10dc:	dc000915 	stw	r16,36(sp)
    10e0:	dfc01115 	stw	ra,68(sp)
    10e4:	0023883a 	mov	r17,zero
	t_pc_cmd pack;
	unsigned char i = 0;
	for (i=0;i<8;i++)
    10e8:	0021883a 	mov	r16,zero
    10ec:	05800034 	movhi	r22,0
    10f0:	b59a6004 	addi	r22,r22,27008
	{
		unsigned char *ptr = (unsigned char*)signal.pulse[sample].sample;
		memcpy(pack.data+1,ptr+i*32,32);
		pack.sign=0x5B;
    10f4:	054016c4 	movi	r21,91
		pack.dlen=33; //1 byte for subframe number
    10f8:	05000844 	movi	r20,33
		pack.data[0]=i;
		pack.code=PCCOM_SAMPLE_LOADER;
    10fc:	04c000c4 	movi	r19,3

void send_sample(unsigned char sample)
{
	t_pc_cmd pack;
	unsigned char i = 0;
	for (i=0;i<8;i++)
    1100:	04800204 	movi	r18,8
	{
		unsigned char *ptr = (unsigned char*)signal.pulse[sample].sample;
		memcpy(pack.data+1,ptr+i*32,32);
    1104:	bc4b883a 	add	r5,r23,r17
    1108:	b14b883a 	add	r5,r22,r5
    110c:	d9000104 	addi	r4,sp,4
    1110:	29400244 	addi	r5,r5,9
    1114:	01800804 	movi	r6,32
    1118:	00037700 	call	3770 <memcpy>
		pack.sign=0x5B;
		pack.dlen=33; //1 byte for subframe number
		pack.data[0]=i;
		pack.code=PCCOM_SAMPLE_LOADER;
		send_cmd2pc(&pack);
    111c:	d809883a 	mov	r4,sp
	{
		unsigned char *ptr = (unsigned char*)signal.pulse[sample].sample;
		memcpy(pack.data+1,ptr+i*32,32);
		pack.sign=0x5B;
		pack.dlen=33; //1 byte for subframe number
		pack.data[0]=i;
    1120:	dc0000c5 	stb	r16,3(sp)
	unsigned char i = 0;
	for (i=0;i<8;i++)
	{
		unsigned char *ptr = (unsigned char*)signal.pulse[sample].sample;
		memcpy(pack.data+1,ptr+i*32,32);
		pack.sign=0x5B;
    1124:	dd400005 	stb	r21,0(sp)

void send_sample(unsigned char sample)
{
	t_pc_cmd pack;
	unsigned char i = 0;
	for (i=0;i<8;i++)
    1128:	84000044 	addi	r16,r16,1
	{
		unsigned char *ptr = (unsigned char*)signal.pulse[sample].sample;
		memcpy(pack.data+1,ptr+i*32,32);
		pack.sign=0x5B;
		pack.dlen=33; //1 byte for subframe number
    112c:	dd000085 	stb	r20,2(sp)
		pack.data[0]=i;
		pack.code=PCCOM_SAMPLE_LOADER;
    1130:	dcc00045 	stb	r19,1(sp)
		send_cmd2pc(&pack);
    1134:	00008400 	call	840 <send_cmd2pc>

void send_sample(unsigned char sample)
{
	t_pc_cmd pack;
	unsigned char i = 0;
	for (i=0;i<8;i++)
    1138:	80803fcc 	andi	r2,r16,255
    113c:	8c400804 	addi	r17,r17,32
    1140:	14bff01e 	bne	r2,r18,1104 <_gp+0xffff2f74>
		pack.dlen=33; //1 byte for subframe number
		pack.data[0]=i;
		pack.code=PCCOM_SAMPLE_LOADER;
		send_cmd2pc(&pack);
	}
}
    1144:	dfc01117 	ldw	ra,68(sp)
    1148:	ddc01017 	ldw	r23,64(sp)
    114c:	dd800f17 	ldw	r22,60(sp)
    1150:	dd400e17 	ldw	r21,56(sp)
    1154:	dd000d17 	ldw	r20,52(sp)
    1158:	dcc00c17 	ldw	r19,48(sp)
    115c:	dc800b17 	ldw	r18,44(sp)
    1160:	dc400a17 	ldw	r17,40(sp)
    1164:	dc000917 	ldw	r16,36(sp)
    1168:	dec01204 	addi	sp,sp,72
    116c:	f800283a 	ret

00001170 <refresh_meas_data>:

void refresh_meas_data()
{
    1170:	defff904 	addi	sp,sp,-28
    1174:	03c00034 	movhi	r15,0
    1178:	7bda6104 	addi	r15,r15,27012
    117c:	02c00034 	movhi	r11,0
    1180:	5adc2ac4 	addi	r11,r11,28843
    1184:	dd800615 	stw	r22,24(sp)
    1188:	dd400515 	stw	r21,20(sp)
    118c:	dd000415 	stw	r20,16(sp)
    1190:	dcc00315 	stw	r19,12(sp)
    1194:	dc400115 	stw	r17,4(sp)
    1198:	dc000015 	stw	r16,0(sp)
    119c:	dc800215 	stw	r18,8(sp)
    11a0:	7c400104 	addi	r17,r15,4
    11a4:	03a54014 	movui	r14,38144
    11a8:	04258314 	movui	r16,38412
    11ac:	0019883a 	mov	r12,zero
    11b0:	5cffff44 	addi	r19,r11,-3
    11b4:	7b7fff04 	addi	r13,r15,-4
   for (i=0;i<6;i++)
   {
	   buf = IORD(SAMPLE_LOADER_BASE,(START_RAM+i));
	   ram_data[i].ram_ptr=buf&0xff;
	   buf=buf>>8;
	   ram_data[i].stop_detected=buf&BIT0;
    11b8:	05bfff44 	movi	r22,-3
	   buf=buf>>1;
	   ram_data[i].buffer_full=buf&BIT0;
    11bc:	057fff84 	movi	r21,-2
{
   unsigned int buf = 0;
   unsigned char i = 0;
   unsigned int j = 0;
   unsigned int word = 0;
   for (i=0;i<6;i++)
    11c0:	05000184 	movi	r20,6
   {
	   buf = IORD(SAMPLE_LOADER_BASE,(START_RAM+i));
    11c4:	80800037 	ldwio	r2,0(r16)
	   ram_data[i].ram_ptr=buf&0xff;
	   buf=buf>>8;
	   ram_data[i].stop_detected=buf&BIT0;
    11c8:	602490fa 	slli	r18,r12,3
   unsigned int j = 0;
   unsigned int word = 0;
   for (i=0;i<6;i++)
   {
	   buf = IORD(SAMPLE_LOADER_BASE,(START_RAM+i));
	   ram_data[i].ram_ptr=buf&0xff;
    11cc:	58800005 	stb	r2,0(r11)
	   buf=buf>>8;
	   ram_data[i].stop_detected=buf&BIT0;
    11d0:	100cd1fa 	srli	r6,r2,7
    11d4:	9c89883a 	add	r4,r19,r18
    11d8:	21000104 	addi	r4,r4,4
    11dc:	21c00003 	ldbu	r7,0(r4)
	   buf=buf>>1;
    11e0:	100ad27a 	srli	r5,r2,9
		pack.code=PCCOM_SAMPLE_LOADER;
		send_cmd2pc(&pack);
	}
}

void refresh_meas_data()
    11e4:	60c041a4 	muli	r3,r12,262
   for (i=0;i<6;i++)
   {
	   buf = IORD(SAMPLE_LOADER_BASE,(START_RAM+i));
	   ram_data[i].ram_ptr=buf&0xff;
	   buf=buf>>8;
	   ram_data[i].stop_detected=buf&BIT0;
    11e8:	3d8e703a 	and	r7,r7,r22
    11ec:	3180008c 	andi	r6,r6,2
    11f0:	398cb03a 	or	r6,r7,r6
	   buf=buf>>1;
	   ram_data[i].buffer_full=buf&BIT0;
	   buf=buf>>1;
	   ram_data[i].sample_size=buf&0xff;
	   buf=buf>>8;
    11f4:	1010d4ba 	srli	r8,r2,18
	   buf = IORD(SAMPLE_LOADER_BASE,(START_RAM+i));
	   ram_data[i].ram_ptr=buf&0xff;
	   buf=buf>>8;
	   ram_data[i].stop_detected=buf&BIT0;
	   buf=buf>>1;
	   ram_data[i].buffer_full=buf&BIT0;
    11f8:	354c703a 	and	r6,r6,r21
    11fc:	2940004c 	andi	r5,r5,1
	   buf=buf>>1;
    1200:	1004d2ba 	srli	r2,r2,10
		pack.code=PCCOM_SAMPLE_LOADER;
		send_cmd2pc(&pack);
	}
}

void refresh_meas_data()
    1204:	68cf883a 	add	r7,r13,r3
	   buf = IORD(SAMPLE_LOADER_BASE,(START_RAM+i));
	   ram_data[i].ram_ptr=buf&0xff;
	   buf=buf>>8;
	   ram_data[i].stop_detected=buf&BIT0;
	   buf=buf>>1;
	   ram_data[i].buffer_full=buf&BIT0;
    1208:	314ab03a 	or	r5,r6,r5
    120c:	21400005 	stb	r5,0(r4)
		pack.code=PCCOM_SAMPLE_LOADER;
		send_cmd2pc(&pack);
	}
}

void refresh_meas_data()
    1210:	3807883a 	mov	r3,r7
	   buf=buf>>1;
	   ram_data[i].buffer_full=buf&BIT0;
	   buf=buf>>1;
	   ram_data[i].sample_size=buf&0xff;
	   buf=buf>>8;
	   ram_data[i].pulse_abs_coord=buf&0x1fff;
    1214:	4207ffcc 	andi	r8,r8,8191
		pack.code=PCCOM_SAMPLE_LOADER;
		send_cmd2pc(&pack);
	}
}

void refresh_meas_data()
    1218:	380d883a 	mov	r6,r7
    121c:	380b883a 	mov	r5,r7
    1220:	19000304 	addi	r4,r3,12
	   buf=buf>>8;
	   ram_data[i].stop_detected=buf&BIT0;
	   buf=buf>>1;
	   ram_data[i].buffer_full=buf&BIT0;
	   buf=buf>>1;
	   ram_data[i].sample_size=buf&0xff;
    1224:	58bfffc5 	stb	r2,-1(r11)
	   buf=buf>>8;
	   ram_data[i].pulse_abs_coord=buf&0x1fff;
    1228:	5a3fff4d 	sth	r8,-3(r11)
	   //signal data
	   signal.pulse[i].abs_position=ram_data[i].pulse_abs_coord;
    122c:	7a00000d 	sth	r8,0(r15)
		pack.code=PCCOM_SAMPLE_LOADER;
		send_cmd2pc(&pack);
	}
}

void refresh_meas_data()
    1230:	39c00244 	addi	r7,r7,9
    1234:	31800284 	addi	r6,r6,10
    1238:	294002c4 	addi	r5,r5,11
    123c:	72804004 	addi	r10,r14,256
    1240:	7007883a 	mov	r3,r14
	   signal.pulse[i].abs_position=ram_data[i].pulse_abs_coord;
	   //   //if (ram_data[i].stop_detected)
	   {
		   for (j=0;j<64;j++)
			   {
			   word=IORD(RAM_SAMPLE_0_BASE-(0x100*i),j);
    1244:	18800037 	ldwio	r2,0(r3)
			   signal.pulse[i].sample[j*4]=word&0xff;
			   signal.pulse[i].sample[j*4+1]=(word>>8)&0xff;
    1248:	1012d23a 	srli	r9,r2,8
			   signal.pulse[i].sample[j*4+2]=(word>>16)&0xff;
    124c:	1010d43a 	srli	r8,r2,16
	   //   //if (ram_data[i].stop_detected)
	   {
		   for (j=0;j<64;j++)
			   {
			   word=IORD(RAM_SAMPLE_0_BASE-(0x100*i),j);
			   signal.pulse[i].sample[j*4]=word&0xff;
    1250:	38800005 	stb	r2,0(r7)
			   signal.pulse[i].sample[j*4+1]=(word>>8)&0xff;
			   signal.pulse[i].sample[j*4+2]=(word>>16)&0xff;
			   signal.pulse[i].sample[j*4+3]=(word>>24)&0xff;
    1254:	1004d63a 	srli	r2,r2,24
	   {
		   for (j=0;j<64;j++)
			   {
			   word=IORD(RAM_SAMPLE_0_BASE-(0x100*i),j);
			   signal.pulse[i].sample[j*4]=word&0xff;
			   signal.pulse[i].sample[j*4+1]=(word>>8)&0xff;
    1258:	32400005 	stb	r9,0(r6)
			   signal.pulse[i].sample[j*4+2]=(word>>16)&0xff;
    125c:	2a000005 	stb	r8,0(r5)
			   signal.pulse[i].sample[j*4+3]=(word>>24)&0xff;
    1260:	20800005 	stb	r2,0(r4)
    1264:	18c00104 	addi	r3,r3,4
    1268:	39c00104 	addi	r7,r7,4
    126c:	31800104 	addi	r6,r6,4
    1270:	29400104 	addi	r5,r5,4
    1274:	21000104 	addi	r4,r4,4
	   ram_data[i].pulse_abs_coord=buf&0x1fff;
	   //signal data
	   signal.pulse[i].abs_position=ram_data[i].pulse_abs_coord;
	   //   //if (ram_data[i].stop_detected)
	   {
		   for (j=0;j<64;j++)
    1278:	1abff21e 	bne	r3,r10,1244 <_gp+0xffff30b4>
			   signal.pulse[i].sample[j*4+1]=(word>>8)&0xff;
			   signal.pulse[i].sample[j*4+2]=(word>>16)&0xff;
			   signal.pulse[i].sample[j*4+3]=(word>>24)&0xff;
			   }
		   //signal.pulse[i].amplitude=get_max(signal.pulse[i].sample,ram_data[i].sample_size);
		   signal.pulse[i].detected=ram_data[i].stop_detected;
    127c:	9ca5883a 	add	r18,r19,r18
    1280:	90800117 	ldw	r2,4(r18)
    1284:	63000044 	addi	r12,r12,1
    1288:	84000104 	addi	r16,r16,4
    128c:	1004d07a 	srli	r2,r2,1
    1290:	5ac00204 	addi	r11,r11,8
    1294:	7bc04184 	addi	r15,r15,262
    1298:	1080004c 	andi	r2,r2,1
    129c:	88800005 	stb	r2,0(r17)
    12a0:	73bfc004 	addi	r14,r14,-256
    12a4:	8c404184 	addi	r17,r17,262
{
   unsigned int buf = 0;
   unsigned char i = 0;
   unsigned int j = 0;
   unsigned int word = 0;
   for (i=0;i<6;i++)
    12a8:	653fc61e 	bne	r12,r20,11c4 <_gp+0xffff3034>
			   }
		   //signal.pulse[i].amplitude=get_max(signal.pulse[i].sample,ram_data[i].sample_size);
		   signal.pulse[i].detected=ram_data[i].stop_detected;
	   }
   }
}
    12ac:	dd800617 	ldw	r22,24(sp)
    12b0:	dd400517 	ldw	r21,20(sp)
    12b4:	dd000417 	ldw	r20,16(sp)
    12b8:	dcc00317 	ldw	r19,12(sp)
    12bc:	dc800217 	ldw	r18,8(sp)
    12c0:	dc400117 	ldw	r17,4(sp)
    12c4:	dc000017 	ldw	r16,0(sp)
    12c8:	dec00704 	addi	sp,sp,28
    12cc:	f800283a 	ret

000012d0 <ProcCmd_SampleLoader>:
sample_buffer_data ram_data[6];


void ProcCmd_SampleLoader (t_pc_cmd *cmd)
{
	switch (cmd->data[0])
    12d0:	208000c3 	ldbu	r2,3(r4)
    12d4:	00c00044 	movi	r3,1
    12d8:	10c00a26 	beq	r2,r3,1304 <ProcCmd_SampleLoader+0x34>
    12dc:	10000326 	beq	r2,zero,12ec <ProcCmd_SampleLoader+0x1c>
    12e0:	00c00084 	movi	r3,2
    12e4:	10c00a26 	beq	r2,r3,1310 <ProcCmd_SampleLoader+0x40>
    12e8:	f800283a 	ret
}

void start_sample_record(unsigned char rec_delay)
{
	unsigned short ctrl = rec_delay;
	ctrl=(ctrl<<1)|BIT0;
    12ec:	20800103 	ldbu	r2,4(r4)
	IOWR(SAMPLE_LOADER_BASE,CONTROL_REG,ctrl);
    12f0:	00e58014 	movui	r3,38400
    12f4:	1085883a 	add	r2,r2,r2
    12f8:	10800054 	ori	r2,r2,1
    12fc:	18800035 	stwio	r2,0(r3)
    1300:	f800283a 	ret
}

void stop_sample_record()
{
	unsigned short ctrl = 0;
	IOWR(SAMPLE_LOADER_BASE,CONTROL_REG,ctrl);
    1304:	00a58014 	movui	r2,38400
    1308:	10000035 	stwio	zero,0(r2)
	case start_sample:
		start_sample_record(cmd->data[1]); //record delay
		break;
	case stop_sample: //stop record
		stop_sample_record();
		refresh_meas_data();
    130c:	00011701 	jmpi	1170 <refresh_meas_data>
		break;
	case read_sample: //get sample
		send_sample(cmd->data[1]);
    1310:	21000103 	ldbu	r4,4(r4)
    1314:	00010b41 	jmpi	10b4 <send_sample>

00001318 <get_sample>:
   }
}

alt_u8* get_sample(alt_u8 num)
{
	return signal.pulse[num].sample;
    1318:	21003fcc 	andi	r4,r4,255
    131c:	210041a4 	muli	r4,r4,262
    1320:	00800034 	movhi	r2,0
    1324:	109a6244 	addi	r2,r2,27017
}
    1328:	2085883a 	add	r2,r4,r2
    132c:	f800283a 	ret

00001330 <send_spi_word>:
    1330:	defffa04 	addi	sp,sp,-24
    1334:	d8800603 	ldbu	r2,24(sp)
    1338:	d8c00703 	ldbu	r3,28(sp)
    133c:	dc400115 	stw	r17,4(sp)
    1340:	dfc00515 	stw	ra,20(sp)
    1344:	dd000415 	stw	r20,16(sp)
    1348:	dcc00315 	stw	r19,12(sp)
    134c:	dc800215 	stw	r18,8(sp)
    1350:	dc000015 	stw	r16,0(sp)
    1354:	2023883a 	mov	r17,r4
    1358:	21400235 	stwio	r5,8(r4)
    135c:	1004c03a 	cmpne	r2,r2,zero
    1360:	1004907a 	slli	r2,r2,1
    1364:	18000126 	beq	r3,zero,136c <send_spi_word+0x3c>
    1368:	10800114 	ori	r2,r2,4
    136c:	39c03fcc 	andi	r7,r7,255
    1370:	31803fcc 	andi	r6,r6,255
    1374:	380e92fa 	slli	r7,r7,11
    1378:	300c90fa 	slli	r6,r6,3
    137c:	398cb03a 	or	r6,r7,r6
    1380:	1184b03a 	or	r2,r2,r6
    1384:	88800035 	stwio	r2,0(r17)
    1388:	10800054 	ori	r2,r2,1
    138c:	88800035 	stwio	r2,0(r17)
    1390:	000194c0 	call	194c <sys_timer_flags>
    1394:	11000003 	ldbu	r4,0(r2)
    1398:	00ffff44 	movi	r3,-3
    139c:	8c000104 	addi	r16,r17,4
    13a0:	20c8703a 	and	r4,r4,r3
    13a4:	11000005 	stb	r4,0(r2)
    13a8:	0025883a 	mov	r18,zero
    13ac:	1827883a 	mov	r19,r3
    13b0:	05000044 	movi	r20,1
    13b4:	80800037 	ldwio	r2,0(r16)
    13b8:	10000926 	beq	r2,zero,13e0 <send_spi_word+0xb0>
    13bc:	88800337 	ldwio	r2,12(r17)
    13c0:	dfc00517 	ldw	ra,20(sp)
    13c4:	dd000417 	ldw	r20,16(sp)
    13c8:	dcc00317 	ldw	r19,12(sp)
    13cc:	dc800217 	ldw	r18,8(sp)
    13d0:	dc400117 	ldw	r17,4(sp)
    13d4:	dc000017 	ldw	r16,0(sp)
    13d8:	dec00604 	addi	sp,sp,24
    13dc:	f800283a 	ret
    13e0:	000194c0 	call	194c <sys_timer_flags>
    13e4:	10800017 	ldw	r2,0(r2)
    13e8:	1080008c 	andi	r2,r2,2
    13ec:	1000031e 	bne	r2,zero,13fc <send_spi_word+0xcc>
    13f0:	90803fcc 	andi	r2,r18,255
    13f4:	a0bff136 	bltu	r20,r2,13bc <_gp+0xffff322c>
    13f8:	003fee06 	br	13b4 <_gp+0xffff3224>
    13fc:	000194c0 	call	194c <sys_timer_flags>
    1400:	10c00003 	ldbu	r3,0(r2)
    1404:	94800044 	addi	r18,r18,1
    1408:	1cc6703a 	and	r3,r3,r19
    140c:	10c00005 	stb	r3,0(r2)
    1410:	003ff706 	br	13f0 <_gp+0xffff3260>

00001414 <start_moving>:
    1414:	21800235 	stwio	r6,8(r4)
    1418:	29403fcc 	andi	r5,r5,255
    141c:	28000326 	beq	r5,zero,142c <start_moving+0x18>
    1420:	00800144 	movi	r2,5
    1424:	20800035 	stwio	r2,0(r4)
    1428:	f800283a 	ret
    142c:	00800044 	movi	r2,1
    1430:	20800035 	stwio	r2,0(r4)
    1434:	f800283a 	ret

00001438 <stop_moving>:
    1438:	20000035 	stwio	zero,0(r4)
    143c:	f800283a 	ret

00001440 <move_on_distance>:
    1440:	21800235 	stwio	r6,8(r4)
    1444:	21c00335 	stwio	r7,12(r4)
    1448:	29403fcc 	andi	r5,r5,255
    144c:	28000326 	beq	r5,zero,145c <move_on_distance+0x1c>
    1450:	008001c4 	movi	r2,7
    1454:	20800035 	stwio	r2,0(r4)
    1458:	f800283a 	ret
    145c:	008000c4 	movi	r2,3
    1460:	20800035 	stwio	r2,0(r4)
    1464:	f800283a 	ret

00001468 <current_pos>:
    1468:	20800137 	ldwio	r2,4(r4)
    146c:	f800283a 	ret

00001470 <reset_position>:
    1470:	00800044 	movi	r2,1
    1474:	20800135 	stwio	r2,4(r4)
    1478:	f800283a 	ret

0000147c <write_16bword_to_tdc>:
void write_16bword_to_tdc (unsigned char address, unsigned char tx_data)
{
	unsigned short tx_word = 0;
	unsigned int answer = 0;
	tx_word = tx_data;
	tx_word|=(address<<8);
    147c:	21003fcc 	andi	r4,r4,255
    1480:	2008923a 	slli	r4,r4,8
    1484:	29403fcc 	andi	r5,r5,255
    1488:	29500014 	ori	r5,r5,16384
	tx_word|=0x4000;
    148c:	290ab03a 	or	r5,r5,r4
	answer=send_spi_word(SPI_TDC_BASE,tx_word<<16,TDC_SHORT_WORD_LEN,TDC_CLK_DIV,TDC_CLK_POL,TDC_CLK_PH);
    1490:	280a943a 	slli	r5,r5,16
	}
}


void write_16bword_to_tdc (unsigned char address, unsigned char tx_data)
{
    1494:	defffd04 	addi	sp,sp,-12
	unsigned short tx_word = 0;
	unsigned int answer = 0;
	tx_word = tx_data;
	tx_word|=(address<<8);
	tx_word|=0x4000;
	answer=send_spi_word(SPI_TDC_BASE,tx_word<<16,TDC_SHORT_WORD_LEN,TDC_CLK_DIV,TDC_CLK_POL,TDC_CLK_PH);
    1498:	d8000015 	stw	zero,0(sp)
    149c:	d8000115 	stw	zero,4(sp)
    14a0:	0125fc14 	movui	r4,38896
    14a4:	01800404 	movi	r6,16
    14a8:	01c00284 	movi	r7,10
	}
}


void write_16bword_to_tdc (unsigned char address, unsigned char tx_data)
{
    14ac:	dfc00215 	stw	ra,8(sp)
	unsigned short tx_word = 0;
	unsigned int answer = 0;
	tx_word = tx_data;
	tx_word|=(address<<8);
	tx_word|=0x4000;
	answer=send_spi_word(SPI_TDC_BASE,tx_word<<16,TDC_SHORT_WORD_LEN,TDC_CLK_DIV,TDC_CLK_POL,TDC_CLK_PH);
    14b0:	00013300 	call	1330 <send_spi_word>
}
    14b4:	dfc00217 	ldw	ra,8(sp)
    14b8:	dec00304 	addi	sp,sp,12
    14bc:	f800283a 	ret

000014c0 <read_16bword_from_tdc>:
unsigned char read_16bword_from_tdc (unsigned char address)
{
	unsigned short tx_word = 0;
	unsigned int answer = 0;
	tx_word|=(address<<8);
	answer=send_spi_word(SPI_TDC_BASE,tx_word<<16,TDC_SHORT_WORD_LEN,TDC_CLK_DIV,TDC_CLK_POL,TDC_CLK_PH);
    14c0:	200a963a 	slli	r5,r4,24
	tx_word|=0x4000;
	answer=send_spi_word(SPI_TDC_BASE,tx_word<<16,TDC_SHORT_WORD_LEN,TDC_CLK_DIV,TDC_CLK_POL,TDC_CLK_PH);
}

unsigned char read_16bword_from_tdc (unsigned char address)
{
    14c4:	defffd04 	addi	sp,sp,-12
	unsigned short tx_word = 0;
	unsigned int answer = 0;
	tx_word|=(address<<8);
	answer=send_spi_word(SPI_TDC_BASE,tx_word<<16,TDC_SHORT_WORD_LEN,TDC_CLK_DIV,TDC_CLK_POL,TDC_CLK_PH);
    14c8:	d8000015 	stw	zero,0(sp)
    14cc:	d8000115 	stw	zero,4(sp)
    14d0:	0125fc14 	movui	r4,38896
    14d4:	01800404 	movi	r6,16
    14d8:	01c00284 	movi	r7,10
	tx_word|=0x4000;
	answer=send_spi_word(SPI_TDC_BASE,tx_word<<16,TDC_SHORT_WORD_LEN,TDC_CLK_DIV,TDC_CLK_POL,TDC_CLK_PH);
}

unsigned char read_16bword_from_tdc (unsigned char address)
{
    14dc:	dfc00215 	stw	ra,8(sp)
	unsigned short tx_word = 0;
	unsigned int answer = 0;
	tx_word|=(address<<8);
	answer=send_spi_word(SPI_TDC_BASE,tx_word<<16,TDC_SHORT_WORD_LEN,TDC_CLK_DIV,TDC_CLK_POL,TDC_CLK_PH);
    14e0:	00013300 	call	1330 <send_spi_word>
	answer&=0xFF; // 
	return answer;
}
    14e4:	dfc00217 	ldw	ra,8(sp)
    14e8:	dec00304 	addi	sp,sp,12
    14ec:	f800283a 	ret

000014f0 <write_32bword_to_tdc>:
void write_32bword_to_tdc (unsigned char address, unsigned int tx_data)
{
	unsigned int tx_word = 0;
	unsigned int answer = 0;
	tx_word = tx_data&0xffffff;
	tx_word|=(address<<24);
    14f0:	2004963a 	slli	r2,r4,24

void write_32bword_to_tdc (unsigned char address, unsigned int tx_data)
{
	unsigned int tx_word = 0;
	unsigned int answer = 0;
	tx_word = tx_data&0xffffff;
    14f4:	00c04034 	movhi	r3,256
    14f8:	18ffffc4 	addi	r3,r3,-1
    14fc:	28ca703a 	and	r5,r5,r3
	answer&=0xFF; // 
	return answer;
}

void write_32bword_to_tdc (unsigned char address, unsigned int tx_data)
{
    1500:	defffd04 	addi	sp,sp,-12
	unsigned int tx_word = 0;
	unsigned int answer = 0;
	tx_word = tx_data&0xffffff;
	tx_word|=(address<<24);
    1504:	29500034 	orhi	r5,r5,16384
	tx_word|=0x40000000;
	answer=send_spi_word(SPI_TDC_BASE,tx_word,TDC_LONG_WORD_LEN,TDC_CLK_DIV,TDC_CLK_POL,TDC_CLK_PH);
    1508:	d8000015 	stw	zero,0(sp)
    150c:	d8000115 	stw	zero,4(sp)
    1510:	0125fc14 	movui	r4,38896
    1514:	288ab03a 	or	r5,r5,r2
    1518:	01800804 	movi	r6,32
    151c:	01c00284 	movi	r7,10
	answer&=0xFF; // 
	return answer;
}

void write_32bword_to_tdc (unsigned char address, unsigned int tx_data)
{
    1520:	dfc00215 	stw	ra,8(sp)
	unsigned int tx_word = 0;
	unsigned int answer = 0;
	tx_word = tx_data&0xffffff;
	tx_word|=(address<<24);
	tx_word|=0x40000000;
	answer=send_spi_word(SPI_TDC_BASE,tx_word,TDC_LONG_WORD_LEN,TDC_CLK_DIV,TDC_CLK_POL,TDC_CLK_PH);
    1524:	00013300 	call	1330 <send_spi_word>
}
    1528:	dfc00217 	ldw	ra,8(sp)
    152c:	dec00304 	addi	sp,sp,12
    1530:	f800283a 	ret

00001534 <read_32bword_from_tdc>:

unsigned int read_32bword_from_tdc (unsigned char address)
{
	unsigned int tx_word = 0;
	unsigned int answer = 0;
	tx_word|=(address<<24);
    1534:	200a963a 	slli	r5,r4,24
	tx_word|=0x40000000;
	answer=send_spi_word(SPI_TDC_BASE,tx_word,TDC_LONG_WORD_LEN,TDC_CLK_DIV,TDC_CLK_POL,TDC_CLK_PH);
}

unsigned int read_32bword_from_tdc (unsigned char address)
{
    1538:	defffd04 	addi	sp,sp,-12
	unsigned int tx_word = 0;
	unsigned int answer = 0;
	tx_word|=(address<<24);
	answer=send_spi_word(SPI_TDC_BASE,tx_word,TDC_LONG_WORD_LEN,TDC_CLK_DIV,TDC_CLK_POL,TDC_CLK_PH);
    153c:	d8000015 	stw	zero,0(sp)
    1540:	d8000115 	stw	zero,4(sp)
    1544:	0125fc14 	movui	r4,38896
    1548:	01800804 	movi	r6,32
    154c:	01c00284 	movi	r7,10
	tx_word|=0x40000000;
	answer=send_spi_word(SPI_TDC_BASE,tx_word,TDC_LONG_WORD_LEN,TDC_CLK_DIV,TDC_CLK_POL,TDC_CLK_PH);
}

unsigned int read_32bword_from_tdc (unsigned char address)
{
    1550:	dfc00215 	stw	ra,8(sp)
	unsigned int tx_word = 0;
	unsigned int answer = 0;
	tx_word|=(address<<24);
	answer=send_spi_word(SPI_TDC_BASE,tx_word,TDC_LONG_WORD_LEN,TDC_CLK_DIV,TDC_CLK_POL,TDC_CLK_PH);
    1554:	00013300 	call	1330 <send_spi_word>
	answer&=0xffffff; // 3 
    1558:	00c04034 	movhi	r3,256
    155c:	18ffffc4 	addi	r3,r3,-1
	return answer;
}
    1560:	10c4703a 	and	r2,r2,r3
    1564:	dfc00217 	ldw	ra,8(sp)
    1568:	dec00304 	addi	sp,sp,12
    156c:	f800283a 	ret

00001570 <set_tdc_chip_enable>:

void set_tdc_chip_enable(unsigned char nReset)
{
	if (nReset)
    1570:	21003fcc 	andi	r4,r4,255
		 IOWR_ALTERA_AVALON_PIO_DATA(TDC_ENABLE_BASE, 0x1); //enable
    1574:	00a5a814 	movui	r2,38560
	return answer;
}

void set_tdc_chip_enable(unsigned char nReset)
{
	if (nReset)
    1578:	2000021e 	bne	r4,zero,1584 <set_tdc_chip_enable+0x14>
		 IOWR_ALTERA_AVALON_PIO_DATA(TDC_ENABLE_BASE, 0x1); //enable
	else
		IOWR_ALTERA_AVALON_PIO_DATA(TDC_ENABLE_BASE, 0x0); //disable
    157c:	10000035 	stwio	zero,0(r2)
    1580:	f800283a 	ret
}

void set_tdc_chip_enable(unsigned char nReset)
{
	if (nReset)
		 IOWR_ALTERA_AVALON_PIO_DATA(TDC_ENABLE_BASE, 0x1); //enable
    1584:	00c00044 	movi	r3,1
    1588:	10c00035 	stwio	r3,0(r2)
    158c:	f800283a 	ret

00001590 <tdc_pause>:
	set_tdc_chip_enable(enable);
	tdc_pause(1);
}

void tdc_pause(unsigned short ticks)
{
    1590:	defffc04 	addi	sp,sp,-16
    1594:	dc800215 	stw	r18,8(sp)
    1598:	dc400115 	stw	r17,4(sp)
    159c:	dc000015 	stw	r16,0(sp)
    15a0:	2023883a 	mov	r17,r4
    15a4:	dfc00315 	stw	ra,12(sp)
	unsigned char ready = 0;
	unsigned short delay = 0;
	sys_timer_flags()->tdc=0;
    15a8:	000194c0 	call	194c <sys_timer_flags>
    15ac:	10c00003 	ldbu	r3,0(r2)
    15b0:	04bffec4 	movi	r18,-5
}

void tdc_pause(unsigned short ticks)
{
	unsigned char ready = 0;
	unsigned short delay = 0;
    15b4:	0021883a 	mov	r16,zero
	sys_timer_flags()->tdc=0;
    15b8:	1c86703a 	and	r3,r3,r18
    15bc:	10c00005 	stb	r3,0(r2)
    15c0:	8c7fffcc 	andi	r17,r17,65535
	while (!ready)
	{
		if (sys_timer_flags()->tdc)
    15c4:	000194c0 	call	194c <sys_timer_flags>
    15c8:	10800017 	ldw	r2,0(r2)
    15cc:	1080010c 	andi	r2,r2,4
    15d0:	1000081e 	bne	r2,zero,15f4 <tdc_pause+0x64>
			{
			sys_timer_flags()->tdc=0;
			delay++;
			}
		if (delay>ticks)
    15d4:	80bfffcc 	andi	r2,r16,65535
    15d8:	88bffa2e 	bgeu	r17,r2,15c4 <_gp+0xffff3434>
			ready=1;
	}
}
    15dc:	dfc00317 	ldw	ra,12(sp)
    15e0:	dc800217 	ldw	r18,8(sp)
    15e4:	dc400117 	ldw	r17,4(sp)
    15e8:	dc000017 	ldw	r16,0(sp)
    15ec:	dec00404 	addi	sp,sp,16
    15f0:	f800283a 	ret
	sys_timer_flags()->tdc=0;
	while (!ready)
	{
		if (sys_timer_flags()->tdc)
			{
			sys_timer_flags()->tdc=0;
    15f4:	000194c0 	call	194c <sys_timer_flags>
    15f8:	10c00003 	ldbu	r3,0(r2)
			delay++;
    15fc:	84000044 	addi	r16,r16,1
	sys_timer_flags()->tdc=0;
	while (!ready)
	{
		if (sys_timer_flags()->tdc)
			{
			sys_timer_flags()->tdc=0;
    1600:	1c86703a 	and	r3,r3,r18
    1604:	10c00005 	stb	r3,0(r2)
    1608:	003ff206 	br	15d4 <_gp+0xffff3444>

0000160c <tdc7200_reset>:
	else
		IOWR_ALTERA_AVALON_PIO_DATA(TDC_ENABLE_BASE, 0x0); //disable
}

void tdc7200_reset()
{
    160c:	defffd04 	addi	sp,sp,-12
    1610:	dc400115 	stw	r17,4(sp)
    1614:	dfc00215 	stw	ra,8(sp)
    1618:	dc000015 	stw	r16,0(sp)
void set_tdc_chip_enable(unsigned char nReset)
{
	if (nReset)
		 IOWR_ALTERA_AVALON_PIO_DATA(TDC_ENABLE_BASE, 0x1); //enable
	else
		IOWR_ALTERA_AVALON_PIO_DATA(TDC_ENABLE_BASE, 0x0); //disable
    161c:	0465a814 	movui	r17,38560
    1620:	88000035 	stwio	zero,0(r17)
}

void tdc7200_reset()
{
	set_tdc_chip_enable(disable);
	tdc_pause(1);
    1624:	04000044 	movi	r16,1
    1628:	8009883a 	mov	r4,r16
    162c:	00015900 	call	1590 <tdc_pause>
}

void set_tdc_chip_enable(unsigned char nReset)
{
	if (nReset)
		 IOWR_ALTERA_AVALON_PIO_DATA(TDC_ENABLE_BASE, 0x1); //enable
    1630:	8c000035 	stwio	r16,0(r17)
void tdc7200_reset()
{
	set_tdc_chip_enable(disable);
	tdc_pause(1);
	set_tdc_chip_enable(enable);
	tdc_pause(1);
    1634:	8009883a 	mov	r4,r16
}
    1638:	dfc00217 	ldw	ra,8(sp)
    163c:	dc400117 	ldw	r17,4(sp)
    1640:	dc000017 	ldw	r16,0(sp)
    1644:	dec00304 	addi	sp,sp,12
void tdc7200_reset()
{
	set_tdc_chip_enable(disable);
	tdc_pause(1);
	set_tdc_chip_enable(enable);
	tdc_pause(1);
    1648:	00015901 	jmpi	1590 <tdc_pause>

0000164c <TDC7200_reg_init>:
			ready=1;
	}
}

void TDC7200_reg_init()
{
    164c:	defffc04 	addi	sp,sp,-16
    1650:	dc800215 	stw	r18,8(sp)
    1654:	dc400115 	stw	r17,4(sp)
    1658:	dc000015 	stw	r16,0(sp)
    165c:	dfc00315 	stw	ra,12(sp)
    1660:	0021883a 	mov	r16,zero
    1664:	04800034 	movhi	r18,0
    1668:	9496c604 	addi	r18,r18,23320
	unsigned char i = 0;
	for (i=0;i<sizeof(TDC7200_reg_local_copy);i++)
    166c:	04400284 	movi	r17,10
		if (delay>ticks)
			ready=1;
	}
}

void TDC7200_reg_init()
    1670:	9405883a 	add	r2,r18,r16
{
	unsigned char i = 0;
	for (i=0;i<sizeof(TDC7200_reg_local_copy);i++)
		write_16bword_to_tdc(i,TDC7200_reg_local_copy[i]);
    1674:	11400003 	ldbu	r5,0(r2)
    1678:	8009883a 	mov	r4,r16
    167c:	84000044 	addi	r16,r16,1
    1680:	000147c0 	call	147c <write_16bword_to_tdc>
}

void TDC7200_reg_init()
{
	unsigned char i = 0;
	for (i=0;i<sizeof(TDC7200_reg_local_copy);i++)
    1684:	847ffa1e 	bne	r16,r17,1670 <_gp+0xffff34e0>
		write_16bword_to_tdc(i,TDC7200_reg_local_copy[i]);
}
    1688:	dfc00317 	ldw	ra,12(sp)
    168c:	dc800217 	ldw	r18,8(sp)
    1690:	dc400117 	ldw	r17,4(sp)
    1694:	dc000017 	ldw	r16,0(sp)
    1698:	dec00404 	addi	sp,sp,16
    169c:	f800283a 	ret

000016a0 <Init_TDC7200>:

unsigned char TDC7200_reg_local_copy[10] = {0x02, 0x44, 0x07, 0x07, 0xFF, 0xFF, 0xFF, 0xFF, 0x0, 0x0 };//0x44, 0x07, 0x07, 0xFF, 0xFF, 0xFF, 0xFF, 0x0, 0x0 };
//0x41   2 ,   5  

void Init_TDC7200(void)
{
    16a0:	defffd04 	addi	sp,sp,-12
    16a4:	dc400115 	stw	r17,4(sp)
    16a8:	dfc00215 	stw	ra,8(sp)
    16ac:	dc000015 	stw	r16,0(sp)
void set_tdc_chip_enable(unsigned char nReset)
{
	if (nReset)
		 IOWR_ALTERA_AVALON_PIO_DATA(TDC_ENABLE_BASE, 0x1); //enable
	else
		IOWR_ALTERA_AVALON_PIO_DATA(TDC_ENABLE_BASE, 0x0); //disable
    16b0:	0465a814 	movui	r17,38560
    16b4:	88000035 	stwio	zero,0(r17)
//0x41   2 ,   5  

void Init_TDC7200(void)
{
	set_tdc_chip_enable(disable);//TDC7200_ENABLE_PxOUT |= TDC7200_ENABLE_PIN;// Enable TDC7200
	tdc_pause(5);
    16b8:	04000144 	movi	r16,5
    16bc:	8009883a 	mov	r4,r16
    16c0:	00015900 	call	1590 <tdc_pause>
}

void set_tdc_chip_enable(unsigned char nReset)
{
	if (nReset)
		 IOWR_ALTERA_AVALON_PIO_DATA(TDC_ENABLE_BASE, 0x1); //enable
    16c4:	00800044 	movi	r2,1
    16c8:	88800035 	stwio	r2,0(r17)
{
	set_tdc_chip_enable(disable);//TDC7200_ENABLE_PxOUT |= TDC7200_ENABLE_PIN;// Enable TDC7200
	tdc_pause(5);
	//UCB1CTLW0 &= ~UCSWRST;// Switch on SPI module
	set_tdc_chip_enable(enable);//TDC7200_ENABLE_PxOUT |= TDC7200_ENABLE_PIN;// Enable TDC7200
	tdc_pause(5);
    16cc:	8009883a 	mov	r4,r16
    16d0:	00015900 	call	1590 <tdc_pause>

	//tdc7200_reset(); //delay_uS(TDC7200_WAKEUP_PERIOD); // Reset TDC7200
	TDC7200_reg_init();									// init registers of TDC7200
    16d4:	000164c0 	call	164c <TDC7200_reg_init>
	//TDC7200_ENABLE_PxOUT &= ~TDC7200_ENABLE_PIN;		// Enable TDC7200 ????????????
	memset(tdc_results,0,sizeof(tdc_results));
    16d8:	00800034 	movhi	r2,0
    16dc:	109c3604 	addi	r2,r2,28888
    16e0:	10000015 	stw	zero,0(r2)
    16e4:	10000115 	stw	zero,4(r2)
    16e8:	10000215 	stw	zero,8(r2)
    16ec:	10000315 	stw	zero,12(r2)
    16f0:	10000415 	stw	zero,16(r2)
}
    16f4:	dfc00217 	ldw	ra,8(sp)
    16f8:	dc400117 	ldw	r17,4(sp)
    16fc:	dc000017 	ldw	r16,0(sp)
    1700:	dec00304 	addi	sp,sp,12
    1704:	f800283a 	ret

00001708 <tdc_start_measure>:
	for (i=0;i<sizeof(TDC7200_reg_local_copy);i++)
		write_16bword_to_tdc(i,TDC7200_reg_local_copy[i]);
}

void tdc_start_measure()
{
    1708:	deffff04 	addi	sp,sp,-4
	write_16bword_to_tdc(INT_STATUS,0x1F);
    170c:	01000084 	movi	r4,2
    1710:	014007c4 	movi	r5,31
	for (i=0;i<sizeof(TDC7200_reg_local_copy);i++)
		write_16bword_to_tdc(i,TDC7200_reg_local_copy[i]);
}

void tdc_start_measure()
{
    1714:	dfc00015 	stw	ra,0(sp)
	write_16bword_to_tdc(INT_STATUS,0x1F);
    1718:	000147c0 	call	147c <write_16bword_to_tdc>
	TDC7200_reg_local_copy[CONFIG1_ADDR]|=BIT0;
    171c:	00800034 	movhi	r2,0
    1720:	1096c604 	addi	r2,r2,23320
    1724:	10c00003 	ldbu	r3,0(r2)
	write_16bword_to_tdc(CONFIG1_ADDR,TDC7200_reg_local_copy[CONFIG1_ADDR]);
    1728:	0009883a 	mov	r4,zero
}

void tdc_start_measure()
{
	write_16bword_to_tdc(INT_STATUS,0x1F);
	TDC7200_reg_local_copy[CONFIG1_ADDR]|=BIT0;
    172c:	18c00054 	ori	r3,r3,1
	write_16bword_to_tdc(CONFIG1_ADDR,TDC7200_reg_local_copy[CONFIG1_ADDR]);
    1730:	19403fcc 	andi	r5,r3,255
}

void tdc_start_measure()
{
	write_16bword_to_tdc(INT_STATUS,0x1F);
	TDC7200_reg_local_copy[CONFIG1_ADDR]|=BIT0;
    1734:	10c00005 	stb	r3,0(r2)
	write_16bword_to_tdc(CONFIG1_ADDR,TDC7200_reg_local_copy[CONFIG1_ADDR]);
}
    1738:	dfc00017 	ldw	ra,0(sp)
    173c:	dec00104 	addi	sp,sp,4

void tdc_start_measure()
{
	write_16bword_to_tdc(INT_STATUS,0x1F);
	TDC7200_reg_local_copy[CONFIG1_ADDR]|=BIT0;
	write_16bword_to_tdc(CONFIG1_ADDR,TDC7200_reg_local_copy[CONFIG1_ADDR]);
    1740:	000147c1 	jmpi	147c <write_16bword_to_tdc>

00001744 <tdc_stop_measure>:
}

void tdc_stop_measure()
{
    1744:	defffc04 	addi	sp,sp,-16
    1748:	dc800215 	stw	r18,8(sp)
    174c:	dc400115 	stw	r17,4(sp)
    1750:	dc000015 	stw	r16,0(sp)
    1754:	dfc00315 	stw	ra,12(sp)
    1758:	0021883a 	mov	r16,zero
    175c:	04800034 	movhi	r18,0
    1760:	949c3604 	addi	r18,r18,28888
	unsigned char i = 0;
	for (i=0;i<5;i++)
    1764:	04400284 	movi	r17,10
		tdc_results[i]=read_16bword_from_tdc(TIME1+2*i);
    1768:	81000404 	addi	r4,r16,16
    176c:	00014c00 	call	14c0 <read_16bword_from_tdc>
	write_16bword_to_tdc(INT_STATUS,0x1F);
	TDC7200_reg_local_copy[CONFIG1_ADDR]|=BIT0;
	write_16bword_to_tdc(CONFIG1_ADDR,TDC7200_reg_local_copy[CONFIG1_ADDR]);
}

void tdc_stop_measure()
    1770:	8407883a 	add	r3,r16,r16
    1774:	90c7883a 	add	r3,r18,r3
{
	unsigned char i = 0;
	for (i=0;i<5;i++)
		tdc_results[i]=read_16bword_from_tdc(TIME1+2*i);
    1778:	10803fcc 	andi	r2,r2,255
    177c:	18800015 	stw	r2,0(r3)
    1780:	84000084 	addi	r16,r16,2
}

void tdc_stop_measure()
{
	unsigned char i = 0;
	for (i=0;i<5;i++)
    1784:	847ff81e 	bne	r16,r17,1768 <_gp+0xffff35d8>
		tdc_results[i]=read_16bword_from_tdc(TIME1+2*i);
}
    1788:	dfc00317 	ldw	ra,12(sp)
    178c:	dc800217 	ldw	r18,8(sp)
    1790:	dc400117 	ldw	r17,4(sp)
    1794:	dc000017 	ldw	r16,0(sp)
    1798:	dec00404 	addi	sp,sp,16
    179c:	f800283a 	ret

000017a0 <ProcCmd_TDC>:
	memset(tdc_results,0,sizeof(tdc_results));
}


void ProcCmd_TDC(t_pc_cmd *cmd)
{
    17a0:	defff504 	addi	sp,sp,-44
    17a4:	dfc00a15 	stw	ra,40(sp)
    17a8:	dc000915 	stw	r16,36(sp)
	switch(cmd->data[0])
    17ac:	208000c3 	ldbu	r2,3(r4)
    17b0:	00c00144 	movi	r3,5
    17b4:	18802436 	bltu	r3,r2,1848 <ProcCmd_TDC+0xa8>
    17b8:	1085883a 	add	r2,r2,r2
    17bc:	1085883a 	add	r2,r2,r2
    17c0:	00c00034 	movhi	r3,0
    17c4:	18c5f504 	addi	r3,r3,6100
    17c8:	10c5883a 	add	r2,r2,r3
    17cc:	10800017 	ldw	r2,0(r2)
    17d0:	1000683a 	jmp	r2
    17d4:	00001880 	call	188 <alt_irq_handler+0x9c>
    17d8:	000017ec 	andhi	zero,zero,95
    17dc:	000018b0 	cmpltui	zero,zero,98
    17e0:	000018c4 	movi	zero,99
    17e4:	00001858 	cmpnei	zero,zero,97
    17e8:	0000186c 	andhi	zero,zero,97
			}
		break;
	case read_reg:
			{
			t_pc_cmd pack;
			unsigned char addr = cmd->data[1];
    17ec:	24000103 	ldbu	r16,4(r4)
			unsigned int result = 0;
			if (addr>0x9)
    17f0:	00800244 	movi	r2,9
    17f4:	81003fcc 	andi	r4,r16,255
    17f8:	11003a2e 	bgeu	r2,r4,18e4 <ProcCmd_TDC+0x144>
				result = read_32bword_from_tdc (addr) & 0xffffff;
    17fc:	00015340 	call	1534 <read_32bword_from_tdc>
    1800:	00c04034 	movhi	r3,256
    1804:	18ffffc4 	addi	r3,r3,-1
    1808:	10c4703a 	and	r2,r2,r3
			else
				result = read_16bword_from_tdc (addr) & 0xff;
			pack.sign = 0x5B;
    180c:	018016c4 	movi	r6,91
			pack.code = PCCOM_TDC;
			pack.dlen = 5;
			pack.data[0] = 0; //read answer
			pack.data[1] = addr;
			pack.data[2] = (result>>16)&0xFF;
    1810:	100ad43a 	srli	r5,r2,16
			pack.data[3] = (result>>8)&0xff;
    1814:	1006d23a 	srli	r3,r2,8
			unsigned int result = 0;
			if (addr>0x9)
				result = read_32bword_from_tdc (addr) & 0xffffff;
			else
				result = read_16bword_from_tdc (addr) & 0xff;
			pack.sign = 0x5B;
    1818:	d9800005 	stb	r6,0(sp)
			pack.code = PCCOM_TDC;
    181c:	01800084 	movi	r6,2
    1820:	d9800045 	stb	r6,1(sp)
			pack.data[0] = 0; //read answer
			pack.data[1] = addr;
			pack.data[2] = (result>>16)&0xFF;
			pack.data[3] = (result>>8)&0xff;
			pack.data[4] = result&0xff;
			send_cmd2pc(&pack);
    1824:	d809883a 	mov	r4,sp
				result = read_32bword_from_tdc (addr) & 0xffffff;
			else
				result = read_16bword_from_tdc (addr) & 0xff;
			pack.sign = 0x5B;
			pack.code = PCCOM_TDC;
			pack.dlen = 5;
    1828:	01800144 	movi	r6,5
    182c:	d9800085 	stb	r6,2(sp)
			pack.data[0] = 0; //read answer
    1830:	d80000c5 	stb	zero,3(sp)
			pack.data[1] = addr;
    1834:	dc000105 	stb	r16,4(sp)
			pack.data[2] = (result>>16)&0xFF;
    1838:	d9400145 	stb	r5,5(sp)
			pack.data[3] = (result>>8)&0xff;
    183c:	d8c00185 	stb	r3,6(sp)
			pack.data[4] = result&0xff;
    1840:	d88001c5 	stb	r2,7(sp)
			send_cmd2pc(&pack);
    1844:	00008400 	call	840 <send_cmd2pc>
		break;
	case init_chip:
		Init_TDC7200();
		break;
	}
}
    1848:	dfc00a17 	ldw	ra,40(sp)
    184c:	dc000917 	ldw	r16,36(sp)
    1850:	dec00b04 	addi	sp,sp,44
    1854:	f800283a 	ret
		break;
	case start_measure:
		tdc_start_measure();
		break;
	case stop_measure:
		tdc_stop_measure();
    1858:	00017440 	call	1744 <tdc_stop_measure>
		break;
	case init_chip:
		Init_TDC7200();
		break;
	}
}
    185c:	dfc00a17 	ldw	ra,40(sp)
    1860:	dc000917 	ldw	r16,36(sp)
    1864:	dec00b04 	addi	sp,sp,44
    1868:	f800283a 	ret
		break;
	case stop_measure:
		tdc_stop_measure();
		break;
	case init_chip:
		Init_TDC7200();
    186c:	00016a00 	call	16a0 <Init_TDC7200>
		break;
	}
}
    1870:	dfc00a17 	ldw	ra,40(sp)
    1874:	dc000917 	ldw	r16,36(sp)
    1878:	dec00b04 	addi	sp,sp,44
    187c:	f800283a 	ret
	{
	case write_reg:
			{
			unsigned char addr = cmd->data[1];
			unsigned int word = (cmd->data[2])<<16;
			word|=(cmd->data[3]<<8);
    1880:	21400183 	ldbu	r5,6(r4)
	switch(cmd->data[0])
	{
	case write_reg:
			{
			unsigned char addr = cmd->data[1];
			unsigned int word = (cmd->data[2])<<16;
    1884:	20c00143 	ldbu	r3,5(r4)
			word|=(cmd->data[3]<<8);
			word|=cmd->data[4];
    1888:	208001c3 	ldbu	r2,7(r4)
	{
	case write_reg:
			{
			unsigned char addr = cmd->data[1];
			unsigned int word = (cmd->data[2])<<16;
			word|=(cmd->data[3]<<8);
    188c:	280a923a 	slli	r5,r5,8
	switch(cmd->data[0])
	{
	case write_reg:
			{
			unsigned char addr = cmd->data[1];
			unsigned int word = (cmd->data[2])<<16;
    1890:	1806943a 	slli	r3,r3,16
			word|=(cmd->data[3]<<8);
			word|=cmd->data[4];
			if (addr>0x9) //  
    1894:	21000103 	ldbu	r4,4(r4)
	{
	case write_reg:
			{
			unsigned char addr = cmd->data[1];
			unsigned int word = (cmd->data[2])<<16;
			word|=(cmd->data[3]<<8);
    1898:	28cab03a 	or	r5,r5,r3
			word|=cmd->data[4];
    189c:	288ab03a 	or	r5,r5,r2
			if (addr>0x9) //  
    18a0:	00800244 	movi	r2,9
    18a4:	11000c2e 	bgeu	r2,r4,18d8 <ProcCmd_TDC+0x138>
				write_32bword_to_tdc(addr,word);
    18a8:	00014f00 	call	14f0 <write_32bword_to_tdc>
    18ac:	003fe606 	br	1848 <_gp+0xffff36b8>
			pack.data[4] = result&0xff;
			send_cmd2pc(&pack);
			}
		break;
	case reset_chip:
		tdc7200_reset();
    18b0:	000160c0 	call	160c <tdc7200_reset>
		break;
	case init_chip:
		Init_TDC7200();
		break;
	}
}
    18b4:	dfc00a17 	ldw	ra,40(sp)
    18b8:	dc000917 	ldw	r16,36(sp)
    18bc:	dec00b04 	addi	sp,sp,44
    18c0:	f800283a 	ret
		break;
	case reset_chip:
		tdc7200_reset();
		break;
	case start_measure:
		tdc_start_measure();
    18c4:	00017080 	call	1708 <tdc_start_measure>
		break;
	case init_chip:
		Init_TDC7200();
		break;
	}
}
    18c8:	dfc00a17 	ldw	ra,40(sp)
    18cc:	dc000917 	ldw	r16,36(sp)
    18d0:	dec00b04 	addi	sp,sp,44
    18d4:	f800283a 	ret
			word|=(cmd->data[3]<<8);
			word|=cmd->data[4];
			if (addr>0x9) //  
				write_32bword_to_tdc(addr,word);
			else
				write_16bword_to_tdc(addr,word);
    18d8:	29403fcc 	andi	r5,r5,255
    18dc:	000147c0 	call	147c <write_16bword_to_tdc>
    18e0:	003fd906 	br	1848 <_gp+0xffff36b8>
			unsigned char addr = cmd->data[1];
			unsigned int result = 0;
			if (addr>0x9)
				result = read_32bword_from_tdc (addr) & 0xffffff;
			else
				result = read_16bword_from_tdc (addr) & 0xff;
    18e4:	00014c00 	call	14c0 <read_16bword_from_tdc>
    18e8:	10803fcc 	andi	r2,r2,255
    18ec:	003fc706 	br	180c <_gp+0xffff367c>

000018f0 <alarm_handler>:
    18f0:	d0e00217 	ldw	r3,-32760(gp)
    18f4:	00800044 	movi	r2,1
    18f8:	19000003 	ldbu	r4,0(r3)
    18fc:	210001d4 	ori	r4,r4,7
    1900:	19000005 	stb	r4,0(r3)
    1904:	f800283a 	ret

00001908 <register_sys_timer_interrupt>:
    1908:	01000034 	movhi	r4,0
    190c:	211c3b04 	addi	r4,r4,28908
    1910:	01400044 	movi	r5,1
    1914:	01800034 	movhi	r6,0
    1918:	31863c04 	addi	r6,r6,6384
    191c:	000f883a 	mov	r7,zero
    1920:	00039441 	jmpi	3944 <alt_alarm_start>

00001924 <timers_init>:
    1924:	deffff04 	addi	sp,sp,-4
    1928:	dfc00015 	stw	ra,0(sp)
    192c:	00019080 	call	1908 <register_sys_timer_interrupt>
    1930:	d0a00217 	ldw	r2,-32760(gp)
    1934:	10c00003 	ldbu	r3,0(r2)
    1938:	18c03e0c 	andi	r3,r3,248
    193c:	10c00005 	stb	r3,0(r2)
    1940:	dfc00017 	ldw	ra,0(sp)
    1944:	dec00104 	addi	sp,sp,4
    1948:	f800283a 	ret

0000194c <sys_timer_flags>:
    194c:	d0a00217 	ldw	r2,-32760(gp)
    1950:	f800283a 	ret

00001954 <sqrt>:
    1954:	defff104 	addi	sp,sp,-60
    1958:	dcc00d15 	stw	r19,52(sp)
    195c:	dc800c15 	stw	r18,48(sp)
    1960:	dc400b15 	stw	r17,44(sp)
    1964:	dc000a15 	stw	r16,40(sp)
    1968:	2023883a 	mov	r17,r4
    196c:	dfc00e15 	stw	ra,56(sp)
    1970:	04800034 	movhi	r18,0
    1974:	94986804 	addi	r18,r18,24992
    1978:	2821883a 	mov	r16,r5
    197c:	0001a9c0 	call	1a9c <__ieee754_sqrt>
    1980:	91000017 	ldw	r4,0(r18)
    1984:	1027883a 	mov	r19,r2
    1988:	00bfffc4 	movi	r2,-1
    198c:	20800d26 	beq	r4,r2,19c4 <sqrt+0x70>
    1990:	8809883a 	mov	r4,r17
    1994:	800b883a 	mov	r5,r16
    1998:	d8c00915 	stw	r3,36(sp)
    199c:	0001d600 	call	1d60 <__isnand>
    19a0:	d8c00917 	ldw	r3,36(sp)
    19a4:	1000071e 	bne	r2,zero,19c4 <sqrt+0x70>
    19a8:	8809883a 	mov	r4,r17
    19ac:	800b883a 	mov	r5,r16
    19b0:	000d883a 	mov	r6,zero
    19b4:	000f883a 	mov	r7,zero
    19b8:	0002c000 	call	2c00 <__ltdf2>
    19bc:	d8c00917 	ldw	r3,36(sp)
    19c0:	10000816 	blt	r2,zero,19e4 <sqrt+0x90>
    19c4:	9805883a 	mov	r2,r19
    19c8:	dfc00e17 	ldw	ra,56(sp)
    19cc:	dcc00d17 	ldw	r19,52(sp)
    19d0:	dc800c17 	ldw	r18,48(sp)
    19d4:	dc400b17 	ldw	r17,44(sp)
    19d8:	dc000a17 	ldw	r16,40(sp)
    19dc:	dec00f04 	addi	sp,sp,60
    19e0:	f800283a 	ret
    19e4:	94800017 	ldw	r18,0(r18)
    19e8:	00800044 	movi	r2,1
    19ec:	d8800015 	stw	r2,0(sp)
    19f0:	00800034 	movhi	r2,0
    19f4:	10966f04 	addi	r2,r2,22972
    19f8:	d8800115 	stw	r2,4(sp)
    19fc:	d8000815 	stw	zero,32(sp)
    1a00:	dc400415 	stw	r17,16(sp)
    1a04:	dc000515 	stw	r16,20(sp)
    1a08:	dc400215 	stw	r17,8(sp)
    1a0c:	dc000315 	stw	r16,12(sp)
    1a10:	9000111e 	bne	r18,zero,1a58 <sqrt+0x104>
    1a14:	d8000615 	stw	zero,24(sp)
    1a18:	d8000715 	stw	zero,28(sp)
    1a1c:	d809883a 	mov	r4,sp
    1a20:	0001d8c0 	call	1d8c <matherr>
    1a24:	10001526 	beq	r2,zero,1a7c <sqrt+0x128>
    1a28:	d8800817 	ldw	r2,32(sp)
    1a2c:	1000171e 	bne	r2,zero,1a8c <sqrt+0x138>
    1a30:	dcc00617 	ldw	r19,24(sp)
    1a34:	d8c00717 	ldw	r3,28(sp)
    1a38:	9805883a 	mov	r2,r19
    1a3c:	dfc00e17 	ldw	ra,56(sp)
    1a40:	dcc00d17 	ldw	r19,52(sp)
    1a44:	dc800c17 	ldw	r18,48(sp)
    1a48:	dc400b17 	ldw	r17,44(sp)
    1a4c:	dc000a17 	ldw	r16,40(sp)
    1a50:	dec00f04 	addi	sp,sp,60
    1a54:	f800283a 	ret
    1a58:	0009883a 	mov	r4,zero
    1a5c:	000b883a 	mov	r5,zero
    1a60:	000d883a 	mov	r6,zero
    1a64:	000f883a 	mov	r7,zero
    1a68:	0002a4c0 	call	2a4c <__divdf3>
    1a6c:	d8800615 	stw	r2,24(sp)
    1a70:	d8c00715 	stw	r3,28(sp)
    1a74:	00800084 	movi	r2,2
    1a78:	90bfe81e 	bne	r18,r2,1a1c <_gp+0xffff388c>
    1a7c:	00037600 	call	3760 <__errno>
    1a80:	00c00844 	movi	r3,33
    1a84:	10c00015 	stw	r3,0(r2)
    1a88:	003fe706 	br	1a28 <_gp+0xffff3898>
    1a8c:	00037600 	call	3760 <__errno>
    1a90:	d8c00817 	ldw	r3,32(sp)
    1a94:	10c00015 	stw	r3,0(r2)
    1a98:	003fe506 	br	1a30 <_gp+0xffff38a0>

00001a9c <__ieee754_sqrt>:
    1a9c:	defffd04 	addi	sp,sp,-12
    1aa0:	dc400115 	stw	r17,4(sp)
    1aa4:	dc000015 	stw	r16,0(sp)
    1aa8:	dfc00215 	stw	ra,8(sp)
    1aac:	28dffc2c 	andhi	r3,r5,32752
    1ab0:	009ffc34 	movhi	r2,32752
    1ab4:	2821883a 	mov	r16,r5
    1ab8:	2023883a 	mov	r17,r4
    1abc:	2811883a 	mov	r8,r5
    1ac0:	2013883a 	mov	r9,r4
    1ac4:	18808326 	beq	r3,r2,1cd4 <__ieee754_sqrt+0x238>
    1ac8:	0140610e 	bge	zero,r5,1c50 <__ieee754_sqrt+0x1b4>
    1acc:	2805d53a 	srai	r2,r5,20
    1ad0:	10006a26 	beq	r2,zero,1c7c <__ieee754_sqrt+0x1e0>
    1ad4:	00c00434 	movhi	r3,16
    1ad8:	18ffffc4 	addi	r3,r3,-1
    1adc:	10bf0044 	addi	r2,r2,-1023
    1ae0:	40d0703a 	and	r8,r8,r3
    1ae4:	10c0004c 	andi	r3,r2,1
    1ae8:	42000434 	orhi	r8,r8,16
    1aec:	1800511e 	bne	r3,zero,1c34 <__ieee754_sqrt+0x198>
    1af0:	4808d7fa 	srli	r4,r9,31
    1af4:	4211883a 	add	r8,r8,r8
    1af8:	101bd07a 	srai	r13,r2,1
    1afc:	4107883a 	add	r3,r8,r4
    1b00:	4a4b883a 	add	r5,r9,r9
    1b04:	01000584 	movi	r4,22
    1b08:	0015883a 	mov	r10,zero
    1b0c:	000d883a 	mov	r6,zero
    1b10:	00800834 	movhi	r2,32
    1b14:	308f883a 	add	r7,r6,r2
    1b18:	2810d7fa 	srli	r8,r5,31
    1b1c:	213fffc4 	addi	r4,r4,-1
    1b20:	19c00316 	blt	r3,r7,1b30 <__ieee754_sqrt+0x94>
    1b24:	19c7c83a 	sub	r3,r3,r7
    1b28:	388d883a 	add	r6,r7,r2
    1b2c:	5095883a 	add	r10,r10,r2
    1b30:	18c7883a 	add	r3,r3,r3
    1b34:	1a07883a 	add	r3,r3,r8
    1b38:	294b883a 	add	r5,r5,r5
    1b3c:	1004d07a 	srli	r2,r2,1
    1b40:	203ff41e 	bne	r4,zero,1b14 <_gp+0xffff3984>
    1b44:	01e00034 	movhi	r7,32768
    1b48:	02400804 	movi	r9,32
    1b4c:	0005883a 	mov	r2,zero
    1b50:	0017883a 	mov	r11,zero
    1b54:	3819883a 	mov	r12,r7
    1b58:	00000806 	br	1b7c <__ieee754_sqrt+0xe0>
    1b5c:	19803226 	beq	r3,r6,1c28 <__ieee754_sqrt+0x18c>
    1b60:	2810d7fa 	srli	r8,r5,31
    1b64:	18c7883a 	add	r3,r3,r3
    1b68:	4a7fffc4 	addi	r9,r9,-1
    1b6c:	1a07883a 	add	r3,r3,r8
    1b70:	294b883a 	add	r5,r5,r5
    1b74:	380ed07a 	srli	r7,r7,1
    1b78:	48001326 	beq	r9,zero,1bc8 <__ieee754_sqrt+0x12c>
    1b7c:	59d1883a 	add	r8,r11,r7
    1b80:	30fff60e 	bge	r6,r3,1b5c <_gp+0xffff39cc>
    1b84:	4120002c 	andhi	r4,r8,32768
    1b88:	41d7883a 	add	r11,r8,r7
    1b8c:	23002326 	beq	r4,r12,1c1c <__ieee754_sqrt+0x180>
    1b90:	3009883a 	mov	r4,r6
    1b94:	1987c83a 	sub	r3,r3,r6
    1b98:	2a00012e 	bgeu	r5,r8,1ba0 <__ieee754_sqrt+0x104>
    1b9c:	18ffffc4 	addi	r3,r3,-1
    1ba0:	2a0bc83a 	sub	r5,r5,r8
    1ba4:	2810d7fa 	srli	r8,r5,31
    1ba8:	18c7883a 	add	r3,r3,r3
    1bac:	4a7fffc4 	addi	r9,r9,-1
    1bb0:	11c5883a 	add	r2,r2,r7
    1bb4:	200d883a 	mov	r6,r4
    1bb8:	1a07883a 	add	r3,r3,r8
    1bbc:	294b883a 	add	r5,r5,r5
    1bc0:	380ed07a 	srli	r7,r7,1
    1bc4:	483fed1e 	bne	r9,zero,1b7c <_gp+0xffff39ec>
    1bc8:	28c6b03a 	or	r3,r5,r3
    1bcc:	18000426 	beq	r3,zero,1be0 <__ieee754_sqrt+0x144>
    1bd0:	00ffffc4 	movi	r3,-1
    1bd4:	10c05026 	beq	r2,r3,1d18 <__ieee754_sqrt+0x27c>
    1bd8:	10c0004c 	andi	r3,r2,1
    1bdc:	1885883a 	add	r2,r3,r2
    1be0:	1022d07a 	srli	r17,r2,1
    1be4:	5007d07a 	srai	r3,r10,1
    1be8:	008ff834 	movhi	r2,16352
    1bec:	5280004c 	andi	r10,r10,1
    1bf0:	1887883a 	add	r3,r3,r2
    1bf4:	5000141e 	bne	r10,zero,1c48 <__ieee754_sqrt+0x1ac>
    1bf8:	681a953a 	slli	r13,r13,20
    1bfc:	68e1883a 	add	r16,r13,r3
    1c00:	8805883a 	mov	r2,r17
    1c04:	8007883a 	mov	r3,r16
    1c08:	dfc00217 	ldw	ra,8(sp)
    1c0c:	dc400117 	ldw	r17,4(sp)
    1c10:	dc000017 	ldw	r16,0(sp)
    1c14:	dec00304 	addi	sp,sp,12
    1c18:	f800283a 	ret
    1c1c:	583fdc16 	blt	r11,zero,1b90 <_gp+0xffff3a00>
    1c20:	31000044 	addi	r4,r6,1
    1c24:	003fdb06 	br	1b94 <_gp+0xffff3a04>
    1c28:	2a3fd62e 	bgeu	r5,r8,1b84 <_gp+0xffff39f4>
    1c2c:	180d883a 	mov	r6,r3
    1c30:	003fcb06 	br	1b60 <_gp+0xffff39d0>
    1c34:	4806d7fa 	srli	r3,r9,31
    1c38:	4211883a 	add	r8,r8,r8
    1c3c:	4a53883a 	add	r9,r9,r9
    1c40:	40d1883a 	add	r8,r8,r3
    1c44:	003faa06 	br	1af0 <_gp+0xffff3960>
    1c48:	8c600034 	orhi	r17,r17,32768
    1c4c:	003fea06 	br	1bf8 <_gp+0xffff3a68>
    1c50:	00a00034 	movhi	r2,32768
    1c54:	10bfffc4 	addi	r2,r2,-1
    1c58:	2884703a 	and	r2,r5,r2
    1c5c:	1104b03a 	or	r2,r2,r4
    1c60:	103fe726 	beq	r2,zero,1c00 <_gp+0xffff3a70>
    1c64:	2800331e 	bne	r5,zero,1d34 <__ieee754_sqrt+0x298>
    1c68:	0005883a 	mov	r2,zero
    1c6c:	4810d2fa 	srli	r8,r9,11
    1c70:	10bffac4 	addi	r2,r2,-21
    1c74:	4812957a 	slli	r9,r9,21
    1c78:	403ffc26 	beq	r8,zero,1c6c <_gp+0xffff3adc>
    1c7c:	40c0042c 	andhi	r3,r8,16
    1c80:	1800281e 	bne	r3,zero,1d24 <__ieee754_sqrt+0x288>
    1c84:	4211883a 	add	r8,r8,r8
    1c88:	4100042c 	andhi	r4,r8,16
    1c8c:	18c00044 	addi	r3,r3,1
    1c90:	203ffc26 	beq	r4,zero,1c84 <_gp+0xffff3af4>
    1c94:	01400044 	movi	r5,1
    1c98:	01000804 	movi	r4,32
    1c9c:	28cbc83a 	sub	r5,r5,r3
    1ca0:	20c9c83a 	sub	r4,r4,r3
    1ca4:	4908d83a 	srl	r4,r9,r4
    1ca8:	1145883a 	add	r2,r2,r5
    1cac:	48d2983a 	sll	r9,r9,r3
    1cb0:	4110b03a 	or	r8,r8,r4
    1cb4:	00c00434 	movhi	r3,16
    1cb8:	18ffffc4 	addi	r3,r3,-1
    1cbc:	10bf0044 	addi	r2,r2,-1023
    1cc0:	40d0703a 	and	r8,r8,r3
    1cc4:	10c0004c 	andi	r3,r2,1
    1cc8:	42000434 	orhi	r8,r8,16
    1ccc:	183f8826 	beq	r3,zero,1af0 <_gp+0xffff3960>
    1cd0:	003fd806 	br	1c34 <_gp+0xffff3aa4>
    1cd4:	200d883a 	mov	r6,r4
    1cd8:	280f883a 	mov	r7,r5
    1cdc:	00027680 	call	2768 <__muldf3>
    1ce0:	8809883a 	mov	r4,r17
    1ce4:	800b883a 	mov	r5,r16
    1ce8:	100d883a 	mov	r6,r2
    1cec:	180f883a 	mov	r7,r3
    1cf0:	00026b40 	call	26b4 <__adddf3>
    1cf4:	1023883a 	mov	r17,r2
    1cf8:	1821883a 	mov	r16,r3
    1cfc:	8805883a 	mov	r2,r17
    1d00:	8007883a 	mov	r3,r16
    1d04:	dfc00217 	ldw	ra,8(sp)
    1d08:	dc400117 	ldw	r17,4(sp)
    1d0c:	dc000017 	ldw	r16,0(sp)
    1d10:	dec00304 	addi	sp,sp,12
    1d14:	f800283a 	ret
    1d18:	52800044 	addi	r10,r10,1
    1d1c:	0023883a 	mov	r17,zero
    1d20:	003fb006 	br	1be4 <_gp+0xffff3a54>
    1d24:	01000804 	movi	r4,32
    1d28:	01400044 	movi	r5,1
    1d2c:	0007883a 	mov	r3,zero
    1d30:	003fdc06 	br	1ca4 <_gp+0xffff3b14>
    1d34:	200d883a 	mov	r6,r4
    1d38:	280f883a 	mov	r7,r5
    1d3c:	00027080 	call	2708 <__subdf3>
    1d40:	1009883a 	mov	r4,r2
    1d44:	180b883a 	mov	r5,r3
    1d48:	100d883a 	mov	r6,r2
    1d4c:	180f883a 	mov	r7,r3
    1d50:	0002a4c0 	call	2a4c <__divdf3>
    1d54:	1023883a 	mov	r17,r2
    1d58:	1821883a 	mov	r16,r3
    1d5c:	003fa806 	br	1c00 <_gp+0xffff3a70>

00001d60 <__isnand>:
    1d60:	0105c83a 	sub	r2,zero,r4
    1d64:	1108b03a 	or	r4,r2,r4
    1d68:	2004d7fa 	srli	r2,r4,31
    1d6c:	00e00034 	movhi	r3,32768
    1d70:	18ffffc4 	addi	r3,r3,-1
    1d74:	28ca703a 	and	r5,r5,r3
    1d78:	1144b03a 	or	r2,r2,r5
    1d7c:	00dffc34 	movhi	r3,32752
    1d80:	1885c83a 	sub	r2,r3,r2
    1d84:	1004d7fa 	srli	r2,r2,31
    1d88:	f800283a 	ret

00001d8c <matherr>:
    1d8c:	0005883a 	mov	r2,zero
    1d90:	f800283a 	ret

00001d94 <__fixunssfsi>:
    1d94:	defffd04 	addi	sp,sp,-12
    1d98:	dc000015 	stw	r16,0(sp)
    1d9c:	0413c034 	movhi	r16,20224
    1da0:	800b883a 	mov	r5,r16
    1da4:	dc400115 	stw	r17,4(sp)
    1da8:	dfc00215 	stw	ra,8(sp)
    1dac:	2023883a 	mov	r17,r4
    1db0:	000222c0 	call	222c <__gesf2>
    1db4:	1000070e 	bge	r2,zero,1dd4 <__fixunssfsi+0x40>
    1db8:	8809883a 	mov	r4,r17
    1dbc:	00022880 	call	2288 <__fixsfsi>
    1dc0:	dfc00217 	ldw	ra,8(sp)
    1dc4:	dc400117 	ldw	r17,4(sp)
    1dc8:	dc000017 	ldw	r16,0(sp)
    1dcc:	dec00304 	addi	sp,sp,12
    1dd0:	f800283a 	ret
    1dd4:	800b883a 	mov	r5,r16
    1dd8:	8809883a 	mov	r4,r17
    1ddc:	00020440 	call	2044 <__subsf3>
    1de0:	1009883a 	mov	r4,r2
    1de4:	00022880 	call	2288 <__fixsfsi>
    1de8:	00e00034 	movhi	r3,32768
    1dec:	10c5883a 	add	r2,r2,r3
    1df0:	dfc00217 	ldw	ra,8(sp)
    1df4:	dc400117 	ldw	r17,4(sp)
    1df8:	dc000017 	ldw	r16,0(sp)
    1dfc:	dec00304 	addi	sp,sp,12
    1e00:	f800283a 	ret

00001e04 <_fpadd_parts>:
    1e04:	2005883a 	mov	r2,r4
    1e08:	21000017 	ldw	r4,0(r4)
    1e0c:	01c00044 	movi	r7,1
    1e10:	3900332e 	bgeu	r7,r4,1ee0 <_fpadd_parts+0xdc>
    1e14:	28c00017 	ldw	r3,0(r5)
    1e18:	38c0642e 	bgeu	r7,r3,1fac <_fpadd_parts+0x1a8>
    1e1c:	01c00104 	movi	r7,4
    1e20:	21c06e26 	beq	r4,r7,1fdc <_fpadd_parts+0x1d8>
    1e24:	19c06126 	beq	r3,r7,1fac <_fpadd_parts+0x1a8>
    1e28:	01c00084 	movi	r7,2
    1e2c:	19c04226 	beq	r3,r7,1f38 <_fpadd_parts+0x134>
    1e30:	21c05e26 	beq	r4,r7,1fac <_fpadd_parts+0x1a8>
    1e34:	11000217 	ldw	r4,8(r2)
    1e38:	2a400217 	ldw	r9,8(r5)
    1e3c:	12800317 	ldw	r10,12(r2)
    1e40:	29c00317 	ldw	r7,12(r5)
    1e44:	2247c83a 	sub	r3,r4,r9
    1e48:	1811883a 	mov	r8,r3
    1e4c:	18005316 	blt	r3,zero,1f9c <_fpadd_parts+0x198>
    1e50:	02c007c4 	movi	r11,31
    1e54:	5a002316 	blt	r11,r8,1ee4 <_fpadd_parts+0xe0>
    1e58:	00c0560e 	bge	zero,r3,1fb4 <_fpadd_parts+0x1b0>
    1e5c:	00c00044 	movi	r3,1
    1e60:	1a06983a 	sll	r3,r3,r8
    1e64:	3a10d83a 	srl	r8,r7,r8
    1e68:	18ffffc4 	addi	r3,r3,-1
    1e6c:	19ce703a 	and	r7,r3,r7
    1e70:	380ec03a 	cmpne	r7,r7,zero
    1e74:	3a0eb03a 	or	r7,r7,r8
    1e78:	10c00117 	ldw	r3,4(r2)
    1e7c:	28800117 	ldw	r2,4(r5)
    1e80:	18801d26 	beq	r3,r2,1ef8 <_fpadd_parts+0xf4>
    1e84:	18003a26 	beq	r3,zero,1f70 <_fpadd_parts+0x16c>
    1e88:	3a85c83a 	sub	r2,r7,r10
    1e8c:	10003a16 	blt	r2,zero,1f78 <_fpadd_parts+0x174>
    1e90:	30000115 	stw	zero,4(r6)
    1e94:	31000215 	stw	r4,8(r6)
    1e98:	30800315 	stw	r2,12(r6)
    1e9c:	10ffffc4 	addi	r3,r2,-1
    1ea0:	01d00034 	movhi	r7,16384
    1ea4:	39ffff84 	addi	r7,r7,-2
    1ea8:	38c00936 	bltu	r7,r3,1ed0 <_fpadd_parts+0xcc>
    1eac:	30c00217 	ldw	r3,8(r6)
    1eb0:	18ffffc4 	addi	r3,r3,-1
    1eb4:	1085883a 	add	r2,r2,r2
    1eb8:	113fffc4 	addi	r4,r2,-1
    1ebc:	180b883a 	mov	r5,r3
    1ec0:	18ffffc4 	addi	r3,r3,-1
    1ec4:	393ffb2e 	bgeu	r7,r4,1eb4 <_gp+0xffff3d24>
    1ec8:	30800315 	stw	r2,12(r6)
    1ecc:	31400215 	stw	r5,8(r6)
    1ed0:	00c000c4 	movi	r3,3
    1ed4:	30c00015 	stw	r3,0(r6)
    1ed8:	10000e16 	blt	r2,zero,1f14 <_fpadd_parts+0x110>
    1edc:	3005883a 	mov	r2,r6
    1ee0:	f800283a 	ret
    1ee4:	49002a0e 	bge	r9,r4,1f90 <_fpadd_parts+0x18c>
    1ee8:	10c00117 	ldw	r3,4(r2)
    1eec:	28800117 	ldw	r2,4(r5)
    1ef0:	000f883a 	mov	r7,zero
    1ef4:	18bfe31e 	bne	r3,r2,1e84 <_gp+0xffff3cf4>
    1ef8:	3a85883a 	add	r2,r7,r10
    1efc:	30c00115 	stw	r3,4(r6)
    1f00:	00c000c4 	movi	r3,3
    1f04:	31000215 	stw	r4,8(r6)
    1f08:	30800315 	stw	r2,12(r6)
    1f0c:	30c00015 	stw	r3,0(r6)
    1f10:	103ff20e 	bge	r2,zero,1edc <_gp+0xffff3d4c>
    1f14:	30c00217 	ldw	r3,8(r6)
    1f18:	1008d07a 	srli	r4,r2,1
    1f1c:	1080004c 	andi	r2,r2,1
    1f20:	18c00044 	addi	r3,r3,1
    1f24:	1104b03a 	or	r2,r2,r4
    1f28:	30800315 	stw	r2,12(r6)
    1f2c:	30c00215 	stw	r3,8(r6)
    1f30:	3005883a 	mov	r2,r6
    1f34:	f800283a 	ret
    1f38:	20ffe91e 	bne	r4,r3,1ee0 <_gp+0xffff3d50>
    1f3c:	31000015 	stw	r4,0(r6)
    1f40:	10c00117 	ldw	r3,4(r2)
    1f44:	30c00115 	stw	r3,4(r6)
    1f48:	11c00217 	ldw	r7,8(r2)
    1f4c:	10c00117 	ldw	r3,4(r2)
    1f50:	29000117 	ldw	r4,4(r5)
    1f54:	31c00215 	stw	r7,8(r6)
    1f58:	10800317 	ldw	r2,12(r2)
    1f5c:	20c6703a 	and	r3,r4,r3
    1f60:	30c00115 	stw	r3,4(r6)
    1f64:	30800315 	stw	r2,12(r6)
    1f68:	3005883a 	mov	r2,r6
    1f6c:	f800283a 	ret
    1f70:	51c5c83a 	sub	r2,r10,r7
    1f74:	103fc60e 	bge	r2,zero,1e90 <_gp+0xffff3d00>
    1f78:	0085c83a 	sub	r2,zero,r2
    1f7c:	00c00044 	movi	r3,1
    1f80:	30c00115 	stw	r3,4(r6)
    1f84:	31000215 	stw	r4,8(r6)
    1f88:	30800315 	stw	r2,12(r6)
    1f8c:	003fc306 	br	1e9c <_gp+0xffff3d0c>
    1f90:	4809883a 	mov	r4,r9
    1f94:	0015883a 	mov	r10,zero
    1f98:	003fb706 	br	1e78 <_gp+0xffff3ce8>
    1f9c:	00d1c83a 	sub	r8,zero,r3
    1fa0:	02c007c4 	movi	r11,31
    1fa4:	5a3fcf16 	blt	r11,r8,1ee4 <_gp+0xffff3d54>
    1fa8:	003fab06 	br	1e58 <_gp+0xffff3cc8>
    1fac:	2805883a 	mov	r2,r5
    1fb0:	f800283a 	ret
    1fb4:	183fb026 	beq	r3,zero,1e78 <_gp+0xffff3ce8>
    1fb8:	02400044 	movi	r9,1
    1fbc:	4a12983a 	sll	r9,r9,r8
    1fc0:	5206d83a 	srl	r3,r10,r8
    1fc4:	2209883a 	add	r4,r4,r8
    1fc8:	4a3fffc4 	addi	r8,r9,-1
    1fcc:	4294703a 	and	r10,r8,r10
    1fd0:	5014c03a 	cmpne	r10,r10,zero
    1fd4:	50d4b03a 	or	r10,r10,r3
    1fd8:	003fa706 	br	1e78 <_gp+0xffff3ce8>
    1fdc:	193fc01e 	bne	r3,r4,1ee0 <_gp+0xffff3d50>
    1fe0:	11000117 	ldw	r4,4(r2)
    1fe4:	28c00117 	ldw	r3,4(r5)
    1fe8:	20ffbd26 	beq	r4,r3,1ee0 <_gp+0xffff3d50>
    1fec:	00800034 	movhi	r2,0
    1ff0:	10967104 	addi	r2,r2,22980
    1ff4:	f800283a 	ret

00001ff8 <__addsf3>:
    1ff8:	defff104 	addi	sp,sp,-60
    1ffc:	d9000d15 	stw	r4,52(sp)
    2000:	d9400c15 	stw	r5,48(sp)
    2004:	d9000d04 	addi	r4,sp,52
    2008:	d9400804 	addi	r5,sp,32
    200c:	dfc00e15 	stw	ra,56(sp)
    2010:	00031300 	call	3130 <__unpack_f>
    2014:	d9000c04 	addi	r4,sp,48
    2018:	d9400404 	addi	r5,sp,16
    201c:	00031300 	call	3130 <__unpack_f>
    2020:	d9000804 	addi	r4,sp,32
    2024:	d9400404 	addi	r5,sp,16
    2028:	d80d883a 	mov	r6,sp
    202c:	0001e040 	call	1e04 <_fpadd_parts>
    2030:	1009883a 	mov	r4,r2
    2034:	00030040 	call	3004 <__pack_f>
    2038:	dfc00e17 	ldw	ra,56(sp)
    203c:	dec00f04 	addi	sp,sp,60
    2040:	f800283a 	ret

00002044 <__subsf3>:
    2044:	defff104 	addi	sp,sp,-60
    2048:	d9000d15 	stw	r4,52(sp)
    204c:	d9400c15 	stw	r5,48(sp)
    2050:	d9000d04 	addi	r4,sp,52
    2054:	d9400804 	addi	r5,sp,32
    2058:	dfc00e15 	stw	ra,56(sp)
    205c:	00031300 	call	3130 <__unpack_f>
    2060:	d9000c04 	addi	r4,sp,48
    2064:	d9400404 	addi	r5,sp,16
    2068:	00031300 	call	3130 <__unpack_f>
    206c:	d8800517 	ldw	r2,20(sp)
    2070:	d9000804 	addi	r4,sp,32
    2074:	d9400404 	addi	r5,sp,16
    2078:	d80d883a 	mov	r6,sp
    207c:	1080005c 	xori	r2,r2,1
    2080:	d8800515 	stw	r2,20(sp)
    2084:	0001e040 	call	1e04 <_fpadd_parts>
    2088:	1009883a 	mov	r4,r2
    208c:	00030040 	call	3004 <__pack_f>
    2090:	dfc00e17 	ldw	ra,56(sp)
    2094:	dec00f04 	addi	sp,sp,60
    2098:	f800283a 	ret

0000209c <__mulsf3>:
    209c:	defff104 	addi	sp,sp,-60
    20a0:	d9000d15 	stw	r4,52(sp)
    20a4:	d9400c15 	stw	r5,48(sp)
    20a8:	d9000d04 	addi	r4,sp,52
    20ac:	d9400804 	addi	r5,sp,32
    20b0:	dfc00e15 	stw	ra,56(sp)
    20b4:	00031300 	call	3130 <__unpack_f>
    20b8:	d9000c04 	addi	r4,sp,48
    20bc:	d9400404 	addi	r5,sp,16
    20c0:	00031300 	call	3130 <__unpack_f>
    20c4:	d8c00817 	ldw	r3,32(sp)
    20c8:	00800044 	movi	r2,1
    20cc:	10c00936 	bltu	r2,r3,20f4 <__mulsf3+0x58>
    20d0:	d8c00917 	ldw	r3,36(sp)
    20d4:	d8800517 	ldw	r2,20(sp)
    20d8:	d9000804 	addi	r4,sp,32
    20dc:	1884c03a 	cmpne	r2,r3,r2
    20e0:	d8800915 	stw	r2,36(sp)
    20e4:	00030040 	call	3004 <__pack_f>
    20e8:	dfc00e17 	ldw	ra,56(sp)
    20ec:	dec00f04 	addi	sp,sp,60
    20f0:	f800283a 	ret
    20f4:	d9000417 	ldw	r4,16(sp)
    20f8:	11000936 	bltu	r2,r4,2120 <__mulsf3+0x84>
    20fc:	d8800517 	ldw	r2,20(sp)
    2100:	d8c00917 	ldw	r3,36(sp)
    2104:	d9000404 	addi	r4,sp,16
    2108:	1884c03a 	cmpne	r2,r3,r2
    210c:	d8800515 	stw	r2,20(sp)
    2110:	00030040 	call	3004 <__pack_f>
    2114:	dfc00e17 	ldw	ra,56(sp)
    2118:	dec00f04 	addi	sp,sp,60
    211c:	f800283a 	ret
    2120:	00800104 	movi	r2,4
    2124:	1880051e 	bne	r3,r2,213c <__mulsf3+0xa0>
    2128:	00800084 	movi	r2,2
    212c:	20bfe81e 	bne	r4,r2,20d0 <_gp+0xffff3f40>
    2130:	01000034 	movhi	r4,0
    2134:	21167104 	addi	r4,r4,22980
    2138:	003fea06 	br	20e4 <_gp+0xffff3f54>
    213c:	2080031e 	bne	r4,r2,214c <__mulsf3+0xb0>
    2140:	00800084 	movi	r2,2
    2144:	18bffa26 	beq	r3,r2,2130 <_gp+0xffff3fa0>
    2148:	003fec06 	br	20fc <_gp+0xffff3f6c>
    214c:	00800084 	movi	r2,2
    2150:	18bfdf26 	beq	r3,r2,20d0 <_gp+0xffff3f40>
    2154:	20bfe926 	beq	r4,r2,20fc <_gp+0xffff3f6c>
    2158:	d9000717 	ldw	r4,28(sp)
    215c:	d9800b17 	ldw	r6,44(sp)
    2160:	000b883a 	mov	r5,zero
    2164:	000f883a 	mov	r7,zero
    2168:	0002ef80 	call	2ef8 <__muldi3>
    216c:	d9000617 	ldw	r4,24(sp)
    2170:	d9400a17 	ldw	r5,40(sp)
    2174:	d9c00917 	ldw	r7,36(sp)
    2178:	290b883a 	add	r5,r5,r4
    217c:	d9000517 	ldw	r4,20(sp)
    2180:	29800084 	addi	r6,r5,2
    2184:	d9800215 	stw	r6,8(sp)
    2188:	3908c03a 	cmpne	r4,r7,r4
    218c:	d9000115 	stw	r4,4(sp)
    2190:	1809883a 	mov	r4,r3
    2194:	1800070e 	bge	r3,zero,21b4 <__mulsf3+0x118>
    2198:	1900004c 	andi	r4,r3,1
    219c:	294000c4 	addi	r5,r5,3
    21a0:	20000226 	beq	r4,zero,21ac <__mulsf3+0x110>
    21a4:	1004d07a 	srli	r2,r2,1
    21a8:	10a00034 	orhi	r2,r2,32768
    21ac:	1808d07a 	srli	r4,r3,1
    21b0:	d9400215 	stw	r5,8(sp)
    21b4:	01900034 	movhi	r6,16384
    21b8:	31bfffc4 	addi	r6,r6,-1
    21bc:	31000c36 	bltu	r6,r4,21f0 <__mulsf3+0x154>
    21c0:	d8c00217 	ldw	r3,8(sp)
    21c4:	18ffffc4 	addi	r3,r3,-1
    21c8:	00000306 	br	21d8 <__mulsf3+0x13c>
    21cc:	1085883a 	add	r2,r2,r2
    21d0:	18ffffc4 	addi	r3,r3,-1
    21d4:	31000536 	bltu	r6,r4,21ec <__mulsf3+0x150>
    21d8:	2109883a 	add	r4,r4,r4
    21dc:	180b883a 	mov	r5,r3
    21e0:	103ffa0e 	bge	r2,zero,21cc <_gp+0xffff403c>
    21e4:	21000054 	ori	r4,r4,1
    21e8:	003ff806 	br	21cc <_gp+0xffff403c>
    21ec:	d9400215 	stw	r5,8(sp)
    21f0:	21401fcc 	andi	r5,r4,127
    21f4:	00c01004 	movi	r3,64
    21f8:	28c00526 	beq	r5,r3,2210 <__mulsf3+0x174>
    21fc:	008000c4 	movi	r2,3
    2200:	d9000315 	stw	r4,12(sp)
    2204:	d8800015 	stw	r2,0(sp)
    2208:	d809883a 	mov	r4,sp
    220c:	003fb506 	br	20e4 <_gp+0xffff3f54>
    2210:	20c0200c 	andi	r3,r4,128
    2214:	183ff91e 	bne	r3,zero,21fc <_gp+0xffff406c>
    2218:	103ff826 	beq	r2,zero,21fc <_gp+0xffff406c>
    221c:	21001004 	addi	r4,r4,64
    2220:	00bfe004 	movi	r2,-128
    2224:	2088703a 	and	r4,r4,r2
    2228:	003ff406 	br	21fc <_gp+0xffff406c>

0000222c <__gesf2>:
    222c:	defff504 	addi	sp,sp,-44
    2230:	d9000915 	stw	r4,36(sp)
    2234:	d9400815 	stw	r5,32(sp)
    2238:	d9000904 	addi	r4,sp,36
    223c:	d9400404 	addi	r5,sp,16
    2240:	dfc00a15 	stw	ra,40(sp)
    2244:	00031300 	call	3130 <__unpack_f>
    2248:	d9000804 	addi	r4,sp,32
    224c:	d80b883a 	mov	r5,sp
    2250:	00031300 	call	3130 <__unpack_f>
    2254:	d8c00417 	ldw	r3,16(sp)
    2258:	00800044 	movi	r2,1
    225c:	10c0082e 	bgeu	r2,r3,2280 <__gesf2+0x54>
    2260:	d8c00017 	ldw	r3,0(sp)
    2264:	10c0062e 	bgeu	r2,r3,2280 <__gesf2+0x54>
    2268:	d9000404 	addi	r4,sp,16
    226c:	d80b883a 	mov	r5,sp
    2270:	00031f80 	call	31f8 <__fpcmp_parts_f>
    2274:	dfc00a17 	ldw	ra,40(sp)
    2278:	dec00b04 	addi	sp,sp,44
    227c:	f800283a 	ret
    2280:	00bfffc4 	movi	r2,-1
    2284:	003ffb06 	br	2274 <_gp+0xffff40e4>

00002288 <__fixsfsi>:
    2288:	defffa04 	addi	sp,sp,-24
    228c:	d9000415 	stw	r4,16(sp)
    2290:	d80b883a 	mov	r5,sp
    2294:	d9000404 	addi	r4,sp,16
    2298:	dfc00515 	stw	ra,20(sp)
    229c:	00031300 	call	3130 <__unpack_f>
    22a0:	d8800017 	ldw	r2,0(sp)
    22a4:	00c00084 	movi	r3,2
    22a8:	10c01826 	beq	r2,r3,230c <__fixsfsi+0x84>
    22ac:	00c00044 	movi	r3,1
    22b0:	1880162e 	bgeu	r3,r2,230c <__fixsfsi+0x84>
    22b4:	00c00104 	movi	r3,4
    22b8:	10c00426 	beq	r2,r3,22cc <__fixsfsi+0x44>
    22bc:	d8800217 	ldw	r2,8(sp)
    22c0:	10001216 	blt	r2,zero,230c <__fixsfsi+0x84>
    22c4:	00c00784 	movi	r3,30
    22c8:	1880070e 	bge	r3,r2,22e8 <__fixsfsi+0x60>
    22cc:	d8800117 	ldw	r2,4(sp)
    22d0:	00e00034 	movhi	r3,32768
    22d4:	1005003a 	cmpeq	r2,r2,zero
    22d8:	1885c83a 	sub	r2,r3,r2
    22dc:	dfc00517 	ldw	ra,20(sp)
    22e0:	dec00604 	addi	sp,sp,24
    22e4:	f800283a 	ret
    22e8:	1885c83a 	sub	r2,r3,r2
    22ec:	d8c00317 	ldw	r3,12(sp)
    22f0:	1884d83a 	srl	r2,r3,r2
    22f4:	d8c00117 	ldw	r3,4(sp)
    22f8:	183ff826 	beq	r3,zero,22dc <_gp+0xffff414c>
    22fc:	0085c83a 	sub	r2,zero,r2
    2300:	dfc00517 	ldw	ra,20(sp)
    2304:	dec00604 	addi	sp,sp,24
    2308:	f800283a 	ret
    230c:	0005883a 	mov	r2,zero
    2310:	dfc00517 	ldw	ra,20(sp)
    2314:	dec00604 	addi	sp,sp,24
    2318:	f800283a 	ret

0000231c <__extendsfdf2>:
    231c:	defff904 	addi	sp,sp,-28
    2320:	d9000515 	stw	r4,20(sp)
    2324:	d9400104 	addi	r5,sp,4
    2328:	d9000504 	addi	r4,sp,20
    232c:	dfc00615 	stw	ra,24(sp)
    2330:	00031300 	call	3130 <__unpack_f>
    2334:	d9c00417 	ldw	r7,16(sp)
    2338:	d9000117 	ldw	r4,4(sp)
    233c:	d9400217 	ldw	r5,8(sp)
    2340:	3804d0ba 	srli	r2,r7,2
    2344:	d9800317 	ldw	r6,12(sp)
    2348:	380e97ba 	slli	r7,r7,30
    234c:	d8800015 	stw	r2,0(sp)
    2350:	0002d300 	call	2d30 <__make_dp>
    2354:	dfc00617 	ldw	ra,24(sp)
    2358:	dec00704 	addi	sp,sp,28
    235c:	f800283a 	ret

00002360 <_fpadd_parts>:
    2360:	2005883a 	mov	r2,r4
    2364:	21000017 	ldw	r4,0(r4)
    2368:	01c00044 	movi	r7,1
    236c:	3900622e 	bgeu	r7,r4,24f8 <_fpadd_parts+0x198>
    2370:	28c00017 	ldw	r3,0(r5)
    2374:	38c05f2e 	bgeu	r7,r3,24f4 <_fpadd_parts+0x194>
    2378:	01c00104 	movi	r7,4
    237c:	21c0c626 	beq	r4,r7,2698 <_fpadd_parts+0x338>
    2380:	19c05c26 	beq	r3,r7,24f4 <_fpadd_parts+0x194>
    2384:	01c00084 	movi	r7,2
    2388:	19c06b26 	beq	r3,r7,2538 <_fpadd_parts+0x1d8>
    238c:	21c05926 	beq	r4,r7,24f4 <_fpadd_parts+0x194>
    2390:	11c00217 	ldw	r7,8(r2)
    2394:	2ac00217 	ldw	r11,8(r5)
    2398:	13000317 	ldw	r12,12(r2)
    239c:	13400417 	ldw	r13,16(r2)
    23a0:	3ac9c83a 	sub	r4,r7,r11
    23a4:	2a000317 	ldw	r8,12(r5)
    23a8:	2a400417 	ldw	r9,16(r5)
    23ac:	2015883a 	mov	r10,r4
    23b0:	20007516 	blt	r4,zero,2588 <_fpadd_parts+0x228>
    23b4:	00c00fc4 	movi	r3,63
    23b8:	1a805016 	blt	r3,r10,24fc <_fpadd_parts+0x19c>
    23bc:	0100870e 	bge	zero,r4,25dc <_fpadd_parts+0x27c>
    23c0:	50fff804 	addi	r3,r10,-32
    23c4:	18009916 	blt	r3,zero,262c <_fpadd_parts+0x2cc>
    23c8:	48d6d83a 	srl	r11,r9,r3
    23cc:	001d883a 	mov	r14,zero
    23d0:	18009e16 	blt	r3,zero,264c <_fpadd_parts+0x2ec>
    23d4:	01000044 	movi	r4,1
    23d8:	20c6983a 	sll	r3,r4,r3
    23dc:	0015883a 	mov	r10,zero
    23e0:	513fffc4 	addi	r4,r10,-1
    23e4:	2295403a 	cmpgeu	r10,r4,r10
    23e8:	1a87c83a 	sub	r3,r3,r10
    23ec:	1a52703a 	and	r9,r3,r9
    23f0:	2210703a 	and	r8,r4,r8
    23f4:	4250b03a 	or	r8,r8,r9
    23f8:	4010c03a 	cmpne	r8,r8,zero
    23fc:	42d0b03a 	or	r8,r8,r11
    2400:	7013883a 	mov	r9,r14
    2404:	11000117 	ldw	r4,4(r2)
    2408:	28800117 	ldw	r2,4(r5)
    240c:	20804126 	beq	r4,r2,2514 <_fpadd_parts+0x1b4>
    2410:	20006326 	beq	r4,zero,25a0 <_fpadd_parts+0x240>
    2414:	4305c83a 	sub	r2,r8,r12
    2418:	4091803a 	cmpltu	r8,r8,r2
    241c:	4b47c83a 	sub	r3,r9,r13
    2420:	1a07c83a 	sub	r3,r3,r8
    2424:	18006316 	blt	r3,zero,25b4 <_fpadd_parts+0x254>
    2428:	30000115 	stw	zero,4(r6)
    242c:	31c00215 	stw	r7,8(r6)
    2430:	30800315 	stw	r2,12(r6)
    2434:	30c00415 	stw	r3,16(r6)
    2438:	11ffffc4 	addi	r7,r2,-1
    243c:	388b403a 	cmpgeu	r5,r7,r2
    2440:	194bc83a 	sub	r5,r3,r5
    2444:	01040034 	movhi	r4,4096
    2448:	213fffc4 	addi	r4,r4,-1
    244c:	21401736 	bltu	r4,r5,24ac <_fpadd_parts+0x14c>
    2450:	29008226 	beq	r5,r4,265c <_fpadd_parts+0x2fc>
    2454:	31400217 	ldw	r5,8(r6)
    2458:	02840034 	movhi	r10,4096
    245c:	52bfffc4 	addi	r10,r10,-1
    2460:	033fff84 	movi	r12,-2
    2464:	297fffc4 	addi	r5,r5,-1
    2468:	00000106 	br	2470 <_fpadd_parts+0x110>
    246c:	3a804a26 	beq	r7,r10,2598 <_fpadd_parts+0x238>
    2470:	1089883a 	add	r4,r2,r2
    2474:	2091803a 	cmpltu	r8,r4,r2
    2478:	18c7883a 	add	r3,r3,r3
    247c:	227fffc4 	addi	r9,r4,-1
    2480:	40d1883a 	add	r8,r8,r3
    2484:	490f403a 	cmpgeu	r7,r9,r4
    2488:	41cfc83a 	sub	r7,r8,r7
    248c:	2817883a 	mov	r11,r5
    2490:	2005883a 	mov	r2,r4
    2494:	4007883a 	mov	r3,r8
    2498:	297fffc4 	addi	r5,r5,-1
    249c:	51fff32e 	bgeu	r10,r7,246c <_gp+0xffff42dc>
    24a0:	31000315 	stw	r4,12(r6)
    24a4:	32000415 	stw	r8,16(r6)
    24a8:	32c00215 	stw	r11,8(r6)
    24ac:	010000c4 	movi	r4,3
    24b0:	31000015 	stw	r4,0(r6)
    24b4:	01080034 	movhi	r4,8192
    24b8:	213fffc4 	addi	r4,r4,-1
    24bc:	20c00b2e 	bgeu	r4,r3,24ec <_fpadd_parts+0x18c>
    24c0:	180e97fa 	slli	r7,r3,31
    24c4:	1008d07a 	srli	r4,r2,1
    24c8:	31400217 	ldw	r5,8(r6)
    24cc:	1806d07a 	srli	r3,r3,1
    24d0:	1080004c 	andi	r2,r2,1
    24d4:	3908b03a 	or	r4,r7,r4
    24d8:	1108b03a 	or	r4,r2,r4
    24dc:	29400044 	addi	r5,r5,1
    24e0:	31000315 	stw	r4,12(r6)
    24e4:	30c00415 	stw	r3,16(r6)
    24e8:	31400215 	stw	r5,8(r6)
    24ec:	3005883a 	mov	r2,r6
    24f0:	f800283a 	ret
    24f4:	2805883a 	mov	r2,r5
    24f8:	f800283a 	ret
    24fc:	59c01e0e 	bge	r11,r7,2578 <_fpadd_parts+0x218>
    2500:	11000117 	ldw	r4,4(r2)
    2504:	28800117 	ldw	r2,4(r5)
    2508:	0011883a 	mov	r8,zero
    250c:	0013883a 	mov	r9,zero
    2510:	20bfbf1e 	bne	r4,r2,2410 <_gp+0xffff4280>
    2514:	4305883a 	add	r2,r8,r12
    2518:	1207803a 	cmpltu	r3,r2,r8
    251c:	4b53883a 	add	r9,r9,r13
    2520:	1a47883a 	add	r3,r3,r9
    2524:	31000115 	stw	r4,4(r6)
    2528:	31c00215 	stw	r7,8(r6)
    252c:	30800315 	stw	r2,12(r6)
    2530:	30c00415 	stw	r3,16(r6)
    2534:	003fdd06 	br	24ac <_gp+0xffff431c>
    2538:	20ffef1e 	bne	r4,r3,24f8 <_gp+0xffff4368>
    253c:	31000015 	stw	r4,0(r6)
    2540:	10c00117 	ldw	r3,4(r2)
    2544:	30c00115 	stw	r3,4(r6)
    2548:	10c00217 	ldw	r3,8(r2)
    254c:	11000117 	ldw	r4,4(r2)
    2550:	29400117 	ldw	r5,4(r5)
    2554:	30c00215 	stw	r3,8(r6)
    2558:	10c00317 	ldw	r3,12(r2)
    255c:	2908703a 	and	r4,r5,r4
    2560:	30c00315 	stw	r3,12(r6)
    2564:	10c00417 	ldw	r3,16(r2)
    2568:	31000115 	stw	r4,4(r6)
    256c:	3005883a 	mov	r2,r6
    2570:	30c00415 	stw	r3,16(r6)
    2574:	f800283a 	ret
    2578:	580f883a 	mov	r7,r11
    257c:	0019883a 	mov	r12,zero
    2580:	001b883a 	mov	r13,zero
    2584:	003f9f06 	br	2404 <_gp+0xffff4274>
    2588:	0115c83a 	sub	r10,zero,r4
    258c:	00c00fc4 	movi	r3,63
    2590:	1abfda16 	blt	r3,r10,24fc <_gp+0xffff436c>
    2594:	003f8906 	br	23bc <_gp+0xffff422c>
    2598:	627fb52e 	bgeu	r12,r9,2470 <_gp+0xffff42e0>
    259c:	003fc006 	br	24a0 <_gp+0xffff4310>
    25a0:	6205c83a 	sub	r2,r12,r8
    25a4:	6099803a 	cmpltu	r12,r12,r2
    25a8:	6a47c83a 	sub	r3,r13,r9
    25ac:	1b07c83a 	sub	r3,r3,r12
    25b0:	183f9d0e 	bge	r3,zero,2428 <_gp+0xffff4298>
    25b4:	0085c83a 	sub	r2,zero,r2
    25b8:	1008c03a 	cmpne	r4,r2,zero
    25bc:	00c7c83a 	sub	r3,zero,r3
    25c0:	1907c83a 	sub	r3,r3,r4
    25c4:	01000044 	movi	r4,1
    25c8:	31000115 	stw	r4,4(r6)
    25cc:	31c00215 	stw	r7,8(r6)
    25d0:	30800315 	stw	r2,12(r6)
    25d4:	30c00415 	stw	r3,16(r6)
    25d8:	003f9706 	br	2438 <_gp+0xffff42a8>
    25dc:	203f8926 	beq	r4,zero,2404 <_gp+0xffff4274>
    25e0:	50fff804 	addi	r3,r10,-32
    25e4:	3a8f883a 	add	r7,r7,r10
    25e8:	18002316 	blt	r3,zero,2678 <_fpadd_parts+0x318>
    25ec:	68d6d83a 	srl	r11,r13,r3
    25f0:	001d883a 	mov	r14,zero
    25f4:	18001c16 	blt	r3,zero,2668 <_fpadd_parts+0x308>
    25f8:	01000044 	movi	r4,1
    25fc:	20c6983a 	sll	r3,r4,r3
    2600:	0015883a 	mov	r10,zero
    2604:	513fffc4 	addi	r4,r10,-1
    2608:	2295403a 	cmpgeu	r10,r4,r10
    260c:	1a87c83a 	sub	r3,r3,r10
    2610:	1b5a703a 	and	r13,r3,r13
    2614:	2318703a 	and	r12,r4,r12
    2618:	6358b03a 	or	r12,r12,r13
    261c:	6018c03a 	cmpne	r12,r12,zero
    2620:	62d8b03a 	or	r12,r12,r11
    2624:	701b883a 	mov	r13,r14
    2628:	003f7606 	br	2404 <_gp+0xffff4274>
    262c:	4808907a 	slli	r4,r9,1
    2630:	02c007c4 	movi	r11,31
    2634:	5a97c83a 	sub	r11,r11,r10
    2638:	22c8983a 	sll	r4,r4,r11
    263c:	4296d83a 	srl	r11,r8,r10
    2640:	4a9cd83a 	srl	r14,r9,r10
    2644:	22d6b03a 	or	r11,r4,r11
    2648:	003f6106 	br	23d0 <_gp+0xffff4240>
    264c:	00c00044 	movi	r3,1
    2650:	1a94983a 	sll	r10,r3,r10
    2654:	0007883a 	mov	r3,zero
    2658:	003f6106 	br	23e0 <_gp+0xffff4250>
    265c:	013fff84 	movi	r4,-2
    2660:	21ff7c2e 	bgeu	r4,r7,2454 <_gp+0xffff42c4>
    2664:	003f9106 	br	24ac <_gp+0xffff431c>
    2668:	00c00044 	movi	r3,1
    266c:	1a94983a 	sll	r10,r3,r10
    2670:	0007883a 	mov	r3,zero
    2674:	003fe306 	br	2604 <_gp+0xffff4474>
    2678:	6816907a 	slli	r11,r13,1
    267c:	010007c4 	movi	r4,31
    2680:	2289c83a 	sub	r4,r4,r10
    2684:	5908983a 	sll	r4,r11,r4
    2688:	6296d83a 	srl	r11,r12,r10
    268c:	6a9cd83a 	srl	r14,r13,r10
    2690:	22d6b03a 	or	r11,r4,r11
    2694:	003fd706 	br	25f4 <_gp+0xffff4464>
    2698:	193f971e 	bne	r3,r4,24f8 <_gp+0xffff4368>
    269c:	11000117 	ldw	r4,4(r2)
    26a0:	28c00117 	ldw	r3,4(r5)
    26a4:	20ff9426 	beq	r4,r3,24f8 <_gp+0xffff4368>
    26a8:	00800034 	movhi	r2,0
    26ac:	10967504 	addi	r2,r2,22996
    26b0:	f800283a 	ret

000026b4 <__adddf3>:
    26b4:	deffec04 	addi	sp,sp,-80
    26b8:	d9001115 	stw	r4,68(sp)
    26bc:	d9401215 	stw	r5,72(sp)
    26c0:	d9001104 	addi	r4,sp,68
    26c4:	d9400a04 	addi	r5,sp,40
    26c8:	dfc01315 	stw	ra,76(sp)
    26cc:	d9c01015 	stw	r7,64(sp)
    26d0:	d9800f15 	stw	r6,60(sp)
    26d4:	00035040 	call	3504 <__unpack_d>
    26d8:	d9000f04 	addi	r4,sp,60
    26dc:	d9400504 	addi	r5,sp,20
    26e0:	00035040 	call	3504 <__unpack_d>
    26e4:	d9000a04 	addi	r4,sp,40
    26e8:	d9400504 	addi	r5,sp,20
    26ec:	d80d883a 	mov	r6,sp
    26f0:	00023600 	call	2360 <_fpadd_parts>
    26f4:	1009883a 	mov	r4,r2
    26f8:	00032e00 	call	32e0 <__pack_d>
    26fc:	dfc01317 	ldw	ra,76(sp)
    2700:	dec01404 	addi	sp,sp,80
    2704:	f800283a 	ret

00002708 <__subdf3>:
    2708:	deffec04 	addi	sp,sp,-80
    270c:	d9001115 	stw	r4,68(sp)
    2710:	d9401215 	stw	r5,72(sp)
    2714:	d9001104 	addi	r4,sp,68
    2718:	d9400a04 	addi	r5,sp,40
    271c:	dfc01315 	stw	ra,76(sp)
    2720:	d9c01015 	stw	r7,64(sp)
    2724:	d9800f15 	stw	r6,60(sp)
    2728:	00035040 	call	3504 <__unpack_d>
    272c:	d9000f04 	addi	r4,sp,60
    2730:	d9400504 	addi	r5,sp,20
    2734:	00035040 	call	3504 <__unpack_d>
    2738:	d8800617 	ldw	r2,24(sp)
    273c:	d9000a04 	addi	r4,sp,40
    2740:	d9400504 	addi	r5,sp,20
    2744:	d80d883a 	mov	r6,sp
    2748:	1080005c 	xori	r2,r2,1
    274c:	d8800615 	stw	r2,24(sp)
    2750:	00023600 	call	2360 <_fpadd_parts>
    2754:	1009883a 	mov	r4,r2
    2758:	00032e00 	call	32e0 <__pack_d>
    275c:	dfc01317 	ldw	ra,76(sp)
    2760:	dec01404 	addi	sp,sp,80
    2764:	f800283a 	ret

00002768 <__muldf3>:
    2768:	deffe404 	addi	sp,sp,-112
    276c:	d9001115 	stw	r4,68(sp)
    2770:	d9401215 	stw	r5,72(sp)
    2774:	d9001104 	addi	r4,sp,68
    2778:	d9400a04 	addi	r5,sp,40
    277c:	dfc01b15 	stw	ra,108(sp)
    2780:	d9800f15 	stw	r6,60(sp)
    2784:	d9c01015 	stw	r7,64(sp)
    2788:	ddc01a15 	stw	r23,104(sp)
    278c:	dd801915 	stw	r22,100(sp)
    2790:	dd401815 	stw	r21,96(sp)
    2794:	dd001715 	stw	r20,92(sp)
    2798:	dcc01615 	stw	r19,88(sp)
    279c:	dc801515 	stw	r18,84(sp)
    27a0:	dc401415 	stw	r17,80(sp)
    27a4:	dc001315 	stw	r16,76(sp)
    27a8:	00035040 	call	3504 <__unpack_d>
    27ac:	d9000f04 	addi	r4,sp,60
    27b0:	d9400504 	addi	r5,sp,20
    27b4:	00035040 	call	3504 <__unpack_d>
    27b8:	d8c00a17 	ldw	r3,40(sp)
    27bc:	00800044 	movi	r2,1
    27c0:	10c01136 	bltu	r2,r3,2808 <__muldf3+0xa0>
    27c4:	d8c00b17 	ldw	r3,44(sp)
    27c8:	d8800617 	ldw	r2,24(sp)
    27cc:	d9000a04 	addi	r4,sp,40
    27d0:	1884c03a 	cmpne	r2,r3,r2
    27d4:	d8800b15 	stw	r2,44(sp)
    27d8:	00032e00 	call	32e0 <__pack_d>
    27dc:	dfc01b17 	ldw	ra,108(sp)
    27e0:	ddc01a17 	ldw	r23,104(sp)
    27e4:	dd801917 	ldw	r22,100(sp)
    27e8:	dd401817 	ldw	r21,96(sp)
    27ec:	dd001717 	ldw	r20,92(sp)
    27f0:	dcc01617 	ldw	r19,88(sp)
    27f4:	dc801517 	ldw	r18,84(sp)
    27f8:	dc401417 	ldw	r17,80(sp)
    27fc:	dc001317 	ldw	r16,76(sp)
    2800:	dec01c04 	addi	sp,sp,112
    2804:	f800283a 	ret
    2808:	d9000517 	ldw	r4,20(sp)
    280c:	11000636 	bltu	r2,r4,2828 <__muldf3+0xc0>
    2810:	d8800617 	ldw	r2,24(sp)
    2814:	d8c00b17 	ldw	r3,44(sp)
    2818:	d9000504 	addi	r4,sp,20
    281c:	1884c03a 	cmpne	r2,r3,r2
    2820:	d8800615 	stw	r2,24(sp)
    2824:	003fec06 	br	27d8 <_gp+0xffff4648>
    2828:	00800104 	movi	r2,4
    282c:	1880051e 	bne	r3,r2,2844 <__muldf3+0xdc>
    2830:	00800084 	movi	r2,2
    2834:	20bfe31e 	bne	r4,r2,27c4 <_gp+0xffff4634>
    2838:	01000034 	movhi	r4,0
    283c:	21167504 	addi	r4,r4,22996
    2840:	003fe506 	br	27d8 <_gp+0xffff4648>
    2844:	2080031e 	bne	r4,r2,2854 <__muldf3+0xec>
    2848:	00800084 	movi	r2,2
    284c:	18bffa26 	beq	r3,r2,2838 <_gp+0xffff46a8>
    2850:	003fef06 	br	2810 <_gp+0xffff4680>
    2854:	00800084 	movi	r2,2
    2858:	18bfda26 	beq	r3,r2,27c4 <_gp+0xffff4634>
    285c:	20bfec26 	beq	r4,r2,2810 <_gp+0xffff4680>
    2860:	dc000d17 	ldw	r16,52(sp)
    2864:	dd000817 	ldw	r20,32(sp)
    2868:	dc800917 	ldw	r18,36(sp)
    286c:	8009883a 	mov	r4,r16
    2870:	000b883a 	mov	r5,zero
    2874:	a00d883a 	mov	r6,r20
    2878:	000f883a 	mov	r7,zero
    287c:	0002ef80 	call	2ef8 <__muldi3>
    2880:	dc400e17 	ldw	r17,56(sp)
    2884:	9009883a 	mov	r4,r18
    2888:	800d883a 	mov	r6,r16
    288c:	000b883a 	mov	r5,zero
    2890:	000f883a 	mov	r7,zero
    2894:	102f883a 	mov	r23,r2
    2898:	1827883a 	mov	r19,r3
    289c:	0002ef80 	call	2ef8 <__muldi3>
    28a0:	900d883a 	mov	r6,r18
    28a4:	8809883a 	mov	r4,r17
    28a8:	000b883a 	mov	r5,zero
    28ac:	000f883a 	mov	r7,zero
    28b0:	102b883a 	mov	r21,r2
    28b4:	1821883a 	mov	r16,r3
    28b8:	0002ef80 	call	2ef8 <__muldi3>
    28bc:	8809883a 	mov	r4,r17
    28c0:	000b883a 	mov	r5,zero
    28c4:	a00d883a 	mov	r6,r20
    28c8:	000f883a 	mov	r7,zero
    28cc:	102d883a 	mov	r22,r2
    28d0:	1825883a 	mov	r18,r3
    28d4:	0002ef80 	call	2ef8 <__muldi3>
    28d8:	154b883a 	add	r5,r2,r21
    28dc:	2889803a 	cmpltu	r4,r5,r2
    28e0:	1c07883a 	add	r3,r3,r16
    28e4:	20c9883a 	add	r4,r4,r3
    28e8:	24004b36 	bltu	r4,r16,2a18 <__muldf3+0x2b0>
    28ec:	8100011e 	bne	r16,r4,28f4 <__muldf3+0x18c>
    28f0:	2d404936 	bltu	r5,r21,2a18 <__muldf3+0x2b0>
    28f4:	0011883a 	mov	r8,zero
    28f8:	0007883a 	mov	r3,zero
    28fc:	2ccb883a 	add	r5,r5,r19
    2900:	b80d883a 	mov	r6,r23
    2904:	2cc0012e 	bgeu	r5,r19,290c <__muldf3+0x1a4>
    2908:	02000044 	movi	r8,1
    290c:	258f883a 	add	r7,r4,r22
    2910:	3909803a 	cmpltu	r4,r7,r4
    2914:	da400c17 	ldw	r9,48(sp)
    2918:	2489883a 	add	r4,r4,r18
    291c:	d8800717 	ldw	r2,28(sp)
    2920:	20c9883a 	add	r4,r4,r3
    2924:	da800b17 	ldw	r10,44(sp)
    2928:	d8c00617 	ldw	r3,24(sp)
    292c:	3a11883a 	add	r8,r7,r8
    2930:	4885883a 	add	r2,r9,r2
    2934:	50c6c03a 	cmpne	r3,r10,r3
    2938:	41cf803a 	cmpltu	r7,r8,r7
    293c:	12400104 	addi	r9,r2,4
    2940:	d8c00115 	stw	r3,4(sp)
    2944:	3909883a 	add	r4,r7,r4
    2948:	da400215 	stw	r9,8(sp)
    294c:	03480034 	movhi	r13,8192
    2950:	6b7fffc4 	addi	r13,r13,-1
    2954:	4007883a 	mov	r3,r8
    2958:	6900102e 	bgeu	r13,r4,299c <__muldf3+0x234>
    295c:	10800144 	addi	r2,r2,5
    2960:	180ed07a 	srli	r7,r3,1
    2964:	18c0004c 	andi	r3,r3,1
    2968:	201097fa 	slli	r8,r4,31
    296c:	281697fa 	slli	r11,r5,31
    2970:	2008d07a 	srli	r4,r4,1
    2974:	3014d07a 	srli	r10,r6,1
    2978:	2812d07a 	srli	r9,r5,1
    297c:	1019883a 	mov	r12,r2
    2980:	18000226 	beq	r3,zero,298c <__muldf3+0x224>
    2984:	5a8cb03a 	or	r6,r11,r10
    2988:	49600034 	orhi	r5,r9,32768
    298c:	41c6b03a 	or	r3,r8,r7
    2990:	10800044 	addi	r2,r2,1
    2994:	693ff236 	bltu	r13,r4,2960 <_gp+0xffff47d0>
    2998:	db000215 	stw	r12,8(sp)
    299c:	03440034 	movhi	r13,4096
    29a0:	6b7fffc4 	addi	r13,r13,-1
    29a4:	69001336 	bltu	r13,r4,29f4 <__muldf3+0x28c>
    29a8:	d8800217 	ldw	r2,8(sp)
    29ac:	10bfffc4 	addi	r2,r2,-1
    29b0:	18d3883a 	add	r9,r3,r3
    29b4:	48c7803a 	cmpltu	r3,r9,r3
    29b8:	2109883a 	add	r4,r4,r4
    29bc:	190f883a 	add	r7,r3,r4
    29c0:	3191883a 	add	r8,r6,r6
    29c4:	4197803a 	cmpltu	r11,r8,r6
    29c8:	2955883a 	add	r10,r5,r5
    29cc:	1019883a 	mov	r12,r2
    29d0:	4807883a 	mov	r3,r9
    29d4:	3809883a 	mov	r4,r7
    29d8:	2800010e 	bge	r5,zero,29e0 <__muldf3+0x278>
    29dc:	48c00054 	ori	r3,r9,1
    29e0:	400d883a 	mov	r6,r8
    29e4:	5a8b883a 	add	r5,r11,r10
    29e8:	10bfffc4 	addi	r2,r2,-1
    29ec:	69fff02e 	bgeu	r13,r7,29b0 <_gp+0xffff4820>
    29f0:	db000215 	stw	r12,8(sp)
    29f4:	18803fcc 	andi	r2,r3,255
    29f8:	01c02004 	movi	r7,128
    29fc:	11c00926 	beq	r2,r7,2a24 <__muldf3+0x2bc>
    2a00:	008000c4 	movi	r2,3
    2a04:	d9000415 	stw	r4,16(sp)
    2a08:	d8c00315 	stw	r3,12(sp)
    2a0c:	d8800015 	stw	r2,0(sp)
    2a10:	d809883a 	mov	r4,sp
    2a14:	003f7006 	br	27d8 <_gp+0xffff4648>
    2a18:	0011883a 	mov	r8,zero
    2a1c:	00c00044 	movi	r3,1
    2a20:	003fb606 	br	28fc <_gp+0xffff476c>
    2a24:	19c0400c 	andi	r7,r3,256
    2a28:	383ff51e 	bne	r7,zero,2a00 <_gp+0xffff4870>
    2a2c:	314ab03a 	or	r5,r6,r5
    2a30:	283ff326 	beq	r5,zero,2a00 <_gp+0xffff4870>
    2a34:	1885883a 	add	r2,r3,r2
    2a38:	10cb803a 	cmpltu	r5,r2,r3
    2a3c:	00ffc004 	movi	r3,-256
    2a40:	10c6703a 	and	r3,r2,r3
    2a44:	2909883a 	add	r4,r5,r4
    2a48:	003fed06 	br	2a00 <_gp+0xffff4870>

00002a4c <__divdf3>:
    2a4c:	defff104 	addi	sp,sp,-60
    2a50:	d9000c15 	stw	r4,48(sp)
    2a54:	d9400d15 	stw	r5,52(sp)
    2a58:	d9000c04 	addi	r4,sp,48
    2a5c:	d9400504 	addi	r5,sp,20
    2a60:	dfc00e15 	stw	ra,56(sp)
    2a64:	d9800a15 	stw	r6,40(sp)
    2a68:	d9c00b15 	stw	r7,44(sp)
    2a6c:	00035040 	call	3504 <__unpack_d>
    2a70:	d9000a04 	addi	r4,sp,40
    2a74:	d80b883a 	mov	r5,sp
    2a78:	00035040 	call	3504 <__unpack_d>
    2a7c:	d8c00517 	ldw	r3,20(sp)
    2a80:	00800044 	movi	r2,1
    2a84:	10c00536 	bltu	r2,r3,2a9c <__divdf3+0x50>
    2a88:	d9000504 	addi	r4,sp,20
    2a8c:	00032e00 	call	32e0 <__pack_d>
    2a90:	dfc00e17 	ldw	ra,56(sp)
    2a94:	dec00f04 	addi	sp,sp,60
    2a98:	f800283a 	ret
    2a9c:	d9000017 	ldw	r4,0(sp)
    2aa0:	11000536 	bltu	r2,r4,2ab8 <__divdf3+0x6c>
    2aa4:	d809883a 	mov	r4,sp
    2aa8:	00032e00 	call	32e0 <__pack_d>
    2aac:	dfc00e17 	ldw	ra,56(sp)
    2ab0:	dec00f04 	addi	sp,sp,60
    2ab4:	f800283a 	ret
    2ab8:	d9800617 	ldw	r6,24(sp)
    2abc:	d9400117 	ldw	r5,4(sp)
    2ac0:	00800104 	movi	r2,4
    2ac4:	314af03a 	xor	r5,r6,r5
    2ac8:	d9400615 	stw	r5,24(sp)
    2acc:	18800226 	beq	r3,r2,2ad8 <__divdf3+0x8c>
    2ad0:	01400084 	movi	r5,2
    2ad4:	1940041e 	bne	r3,r5,2ae8 <__divdf3+0x9c>
    2ad8:	193feb1e 	bne	r3,r4,2a88 <_gp+0xffff48f8>
    2adc:	01000034 	movhi	r4,0
    2ae0:	21167504 	addi	r4,r4,22996
    2ae4:	003fe906 	br	2a8c <_gp+0xffff48fc>
    2ae8:	20803326 	beq	r4,r2,2bb8 <__divdf3+0x16c>
    2aec:	21403726 	beq	r4,r5,2bcc <__divdf3+0x180>
    2af0:	d8800217 	ldw	r2,8(sp)
    2af4:	d9000717 	ldw	r4,28(sp)
    2af8:	d8c00917 	ldw	r3,36(sp)
    2afc:	da000417 	ldw	r8,16(sp)
    2b00:	2089c83a 	sub	r4,r4,r2
    2b04:	d9000715 	stw	r4,28(sp)
    2b08:	d8800817 	ldw	r2,32(sp)
    2b0c:	dbc00317 	ldw	r15,12(sp)
    2b10:	1a000236 	bltu	r3,r8,2b1c <__divdf3+0xd0>
    2b14:	40c0081e 	bne	r8,r3,2b38 <__divdf3+0xec>
    2b18:	13c0072e 	bgeu	r2,r15,2b38 <__divdf3+0xec>
    2b1c:	108b883a 	add	r5,r2,r2
    2b20:	288d803a 	cmpltu	r6,r5,r2
    2b24:	18c7883a 	add	r3,r3,r3
    2b28:	213fffc4 	addi	r4,r4,-1
    2b2c:	2805883a 	mov	r2,r5
    2b30:	30c7883a 	add	r3,r6,r3
    2b34:	d9000715 	stw	r4,28(sp)
    2b38:	01400f44 	movi	r5,61
    2b3c:	000f883a 	mov	r7,zero
    2b40:	01040034 	movhi	r4,4096
    2b44:	0019883a 	mov	r12,zero
    2b48:	001b883a 	mov	r13,zero
    2b4c:	201697fa 	slli	r11,r4,31
    2b50:	3814d07a 	srli	r10,r7,1
    2b54:	297fffc4 	addi	r5,r5,-1
    2b58:	1a000936 	bltu	r3,r8,2b80 <__divdf3+0x134>
    2b5c:	13cdc83a 	sub	r6,r2,r15
    2b60:	1193803a 	cmpltu	r9,r2,r6
    2b64:	1a1dc83a 	sub	r14,r3,r8
    2b68:	40c0011e 	bne	r8,r3,2b70 <__divdf3+0x124>
    2b6c:	13c00436 	bltu	r2,r15,2b80 <__divdf3+0x134>
    2b70:	3005883a 	mov	r2,r6
    2b74:	7247c83a 	sub	r3,r14,r9
    2b78:	61d8b03a 	or	r12,r12,r7
    2b7c:	691ab03a 	or	r13,r13,r4
    2b80:	108d883a 	add	r6,r2,r2
    2b84:	3093803a 	cmpltu	r9,r6,r2
    2b88:	18c7883a 	add	r3,r3,r3
    2b8c:	5a8eb03a 	or	r7,r11,r10
    2b90:	2008d07a 	srli	r4,r4,1
    2b94:	3005883a 	mov	r2,r6
    2b98:	48c7883a 	add	r3,r9,r3
    2b9c:	283feb1e 	bne	r5,zero,2b4c <_gp+0xffff49bc>
    2ba0:	61003fcc 	andi	r4,r12,255
    2ba4:	01402004 	movi	r5,128
    2ba8:	21400b26 	beq	r4,r5,2bd8 <__divdf3+0x18c>
    2bac:	db000815 	stw	r12,32(sp)
    2bb0:	db400915 	stw	r13,36(sp)
    2bb4:	003fb406 	br	2a88 <_gp+0xffff48f8>
    2bb8:	d8000815 	stw	zero,32(sp)
    2bbc:	d8000915 	stw	zero,36(sp)
    2bc0:	d8000715 	stw	zero,28(sp)
    2bc4:	d9000504 	addi	r4,sp,20
    2bc8:	003fb006 	br	2a8c <_gp+0xffff48fc>
    2bcc:	d8800515 	stw	r2,20(sp)
    2bd0:	d9000504 	addi	r4,sp,20
    2bd4:	003fad06 	br	2a8c <_gp+0xffff48fc>
    2bd8:	6140400c 	andi	r5,r12,256
    2bdc:	283ff31e 	bne	r5,zero,2bac <_gp+0xffff4a1c>
    2be0:	30c4b03a 	or	r2,r6,r3
    2be4:	103ff126 	beq	r2,zero,2bac <_gp+0xffff4a1c>
    2be8:	6109883a 	add	r4,r12,r4
    2bec:	2305803a 	cmpltu	r2,r4,r12
    2bf0:	033fc004 	movi	r12,-256
    2bf4:	2318703a 	and	r12,r4,r12
    2bf8:	135b883a 	add	r13,r2,r13
    2bfc:	003feb06 	br	2bac <_gp+0xffff4a1c>

00002c00 <__ltdf2>:
    2c00:	defff104 	addi	sp,sp,-60
    2c04:	d9000c15 	stw	r4,48(sp)
    2c08:	d9400d15 	stw	r5,52(sp)
    2c0c:	d9000c04 	addi	r4,sp,48
    2c10:	d9400504 	addi	r5,sp,20
    2c14:	dfc00e15 	stw	ra,56(sp)
    2c18:	d9800a15 	stw	r6,40(sp)
    2c1c:	d9c00b15 	stw	r7,44(sp)
    2c20:	00035040 	call	3504 <__unpack_d>
    2c24:	d9000a04 	addi	r4,sp,40
    2c28:	d80b883a 	mov	r5,sp
    2c2c:	00035040 	call	3504 <__unpack_d>
    2c30:	d8c00517 	ldw	r3,20(sp)
    2c34:	00800044 	movi	r2,1
    2c38:	10c0052e 	bgeu	r2,r3,2c50 <__ltdf2+0x50>
    2c3c:	d8c00017 	ldw	r3,0(sp)
    2c40:	10c0032e 	bgeu	r2,r3,2c50 <__ltdf2+0x50>
    2c44:	d9000504 	addi	r4,sp,20
    2c48:	d80b883a 	mov	r5,sp
    2c4c:	00036080 	call	3608 <__fpcmp_parts_d>
    2c50:	dfc00e17 	ldw	ra,56(sp)
    2c54:	dec00f04 	addi	sp,sp,60
    2c58:	f800283a 	ret

00002c5c <__floatsidf>:
    2c5c:	2004d7fa 	srli	r2,r4,31
    2c60:	defff904 	addi	sp,sp,-28
    2c64:	00c000c4 	movi	r3,3
    2c68:	dfc00615 	stw	ra,24(sp)
    2c6c:	dc000515 	stw	r16,20(sp)
    2c70:	d8c00015 	stw	r3,0(sp)
    2c74:	d8800115 	stw	r2,4(sp)
    2c78:	2000081e 	bne	r4,zero,2c9c <__floatsidf+0x40>
    2c7c:	00800084 	movi	r2,2
    2c80:	d8800015 	stw	r2,0(sp)
    2c84:	d809883a 	mov	r4,sp
    2c88:	00032e00 	call	32e0 <__pack_d>
    2c8c:	dfc00617 	ldw	ra,24(sp)
    2c90:	dc000517 	ldw	r16,20(sp)
    2c94:	dec00704 	addi	sp,sp,28
    2c98:	f800283a 	ret
    2c9c:	00c00f04 	movi	r3,60
    2ca0:	d8c00215 	stw	r3,8(sp)
    2ca4:	10000f1e 	bne	r2,zero,2ce4 <__floatsidf+0x88>
    2ca8:	2021883a 	mov	r16,r4
    2cac:	8009883a 	mov	r4,r16
    2cb0:	0002f580 	call	2f58 <__clzsi2>
    2cb4:	11000744 	addi	r4,r2,29
    2cb8:	0100110e 	bge	zero,r4,2d00 <__floatsidf+0xa4>
    2cbc:	10ffff44 	addi	r3,r2,-3
    2cc0:	18001216 	blt	r3,zero,2d0c <__floatsidf+0xb0>
    2cc4:	80c6983a 	sll	r3,r16,r3
    2cc8:	0009883a 	mov	r4,zero
    2ccc:	014007c4 	movi	r5,31
    2cd0:	2885c83a 	sub	r2,r5,r2
    2cd4:	d9000315 	stw	r4,12(sp)
    2cd8:	d8c00415 	stw	r3,16(sp)
    2cdc:	d8800215 	stw	r2,8(sp)
    2ce0:	003fe806 	br	2c84 <_gp+0xffff4af4>
    2ce4:	00a00034 	movhi	r2,32768
    2ce8:	20800e26 	beq	r4,r2,2d24 <__floatsidf+0xc8>
    2cec:	0121c83a 	sub	r16,zero,r4
    2cf0:	8009883a 	mov	r4,r16
    2cf4:	0002f580 	call	2f58 <__clzsi2>
    2cf8:	11000744 	addi	r4,r2,29
    2cfc:	013fef16 	blt	zero,r4,2cbc <_gp+0xffff4b2c>
    2d00:	dc000315 	stw	r16,12(sp)
    2d04:	d8000415 	stw	zero,16(sp)
    2d08:	003fde06 	br	2c84 <_gp+0xffff4af4>
    2d0c:	800ad07a 	srli	r5,r16,1
    2d10:	00c007c4 	movi	r3,31
    2d14:	1907c83a 	sub	r3,r3,r4
    2d18:	28c6d83a 	srl	r3,r5,r3
    2d1c:	8108983a 	sll	r4,r16,r4
    2d20:	003fea06 	br	2ccc <_gp+0xffff4b3c>
    2d24:	0005883a 	mov	r2,zero
    2d28:	00f07834 	movhi	r3,49632
    2d2c:	003fd706 	br	2c8c <_gp+0xffff4afc>

00002d30 <__make_dp>:
    2d30:	defff904 	addi	sp,sp,-28
    2d34:	d8800717 	ldw	r2,28(sp)
    2d38:	d9000015 	stw	r4,0(sp)
    2d3c:	d809883a 	mov	r4,sp
    2d40:	dfc00515 	stw	ra,20(sp)
    2d44:	d9c00615 	stw	r7,24(sp)
    2d48:	d9400115 	stw	r5,4(sp)
    2d4c:	d9800215 	stw	r6,8(sp)
    2d50:	d9c00315 	stw	r7,12(sp)
    2d54:	d8800415 	stw	r2,16(sp)
    2d58:	00032e00 	call	32e0 <__pack_d>
    2d5c:	dfc00517 	ldw	ra,20(sp)
    2d60:	dec00704 	addi	sp,sp,28
    2d64:	f800283a 	ret

00002d68 <__truncdfsf2>:
    2d68:	defff804 	addi	sp,sp,-32
    2d6c:	d9000515 	stw	r4,20(sp)
    2d70:	d9400615 	stw	r5,24(sp)
    2d74:	d9000504 	addi	r4,sp,20
    2d78:	d80b883a 	mov	r5,sp
    2d7c:	dfc00715 	stw	ra,28(sp)
    2d80:	00035040 	call	3504 <__unpack_d>
    2d84:	d8800317 	ldw	r2,12(sp)
    2d88:	d8c00417 	ldw	r3,16(sp)
    2d8c:	01100034 	movhi	r4,16384
    2d90:	213fffc4 	addi	r4,r4,-1
    2d94:	100ed7ba 	srli	r7,r2,30
    2d98:	180690ba 	slli	r3,r3,2
    2d9c:	1104703a 	and	r2,r2,r4
    2da0:	19ceb03a 	or	r7,r3,r7
    2da4:	10000126 	beq	r2,zero,2dac <__truncdfsf2+0x44>
    2da8:	39c00054 	ori	r7,r7,1
    2dac:	d9000017 	ldw	r4,0(sp)
    2db0:	d9400117 	ldw	r5,4(sp)
    2db4:	d9800217 	ldw	r6,8(sp)
    2db8:	00032b40 	call	32b4 <__make_fp>
    2dbc:	dfc00717 	ldw	ra,28(sp)
    2dc0:	dec00804 	addi	sp,sp,32
    2dc4:	f800283a 	ret

00002dc8 <udivmodsi4>:
    2dc8:	2005883a 	mov	r2,r4
    2dcc:	2900182e 	bgeu	r5,r4,2e30 <udivmodsi4+0x68>
    2dd0:	28001716 	blt	r5,zero,2e30 <udivmodsi4+0x68>
    2dd4:	01000804 	movi	r4,32
    2dd8:	00c00044 	movi	r3,1
    2ddc:	00000206 	br	2de8 <udivmodsi4+0x20>
    2de0:	20001126 	beq	r4,zero,2e28 <udivmodsi4+0x60>
    2de4:	28000516 	blt	r5,zero,2dfc <udivmodsi4+0x34>
    2de8:	294b883a 	add	r5,r5,r5
    2dec:	213fffc4 	addi	r4,r4,-1
    2df0:	18c7883a 	add	r3,r3,r3
    2df4:	28bffa36 	bltu	r5,r2,2de0 <_gp+0xffff4c50>
    2df8:	18000b26 	beq	r3,zero,2e28 <udivmodsi4+0x60>
    2dfc:	0009883a 	mov	r4,zero
    2e00:	11400236 	bltu	r2,r5,2e0c <udivmodsi4+0x44>
    2e04:	1145c83a 	sub	r2,r2,r5
    2e08:	20c8b03a 	or	r4,r4,r3
    2e0c:	1806d07a 	srli	r3,r3,1
    2e10:	280ad07a 	srli	r5,r5,1
    2e14:	183ffa1e 	bne	r3,zero,2e00 <_gp+0xffff4c70>
    2e18:	3000021e 	bne	r6,zero,2e24 <udivmodsi4+0x5c>
    2e1c:	2005883a 	mov	r2,r4
    2e20:	f800283a 	ret
    2e24:	f800283a 	ret
    2e28:	0009883a 	mov	r4,zero
    2e2c:	003ffa06 	br	2e18 <_gp+0xffff4c88>
    2e30:	00c00044 	movi	r3,1
    2e34:	0009883a 	mov	r4,zero
    2e38:	003ff106 	br	2e00 <_gp+0xffff4c70>

00002e3c <__divsi3>:
    2e3c:	defffe04 	addi	sp,sp,-8
    2e40:	dfc00115 	stw	ra,4(sp)
    2e44:	dc000015 	stw	r16,0(sp)
    2e48:	20000a16 	blt	r4,zero,2e74 <__divsi3+0x38>
    2e4c:	0021883a 	mov	r16,zero
    2e50:	28000b16 	blt	r5,zero,2e80 <__divsi3+0x44>
    2e54:	000d883a 	mov	r6,zero
    2e58:	0002dc80 	call	2dc8 <udivmodsi4>
    2e5c:	80000126 	beq	r16,zero,2e64 <__divsi3+0x28>
    2e60:	0085c83a 	sub	r2,zero,r2
    2e64:	dfc00117 	ldw	ra,4(sp)
    2e68:	dc000017 	ldw	r16,0(sp)
    2e6c:	dec00204 	addi	sp,sp,8
    2e70:	f800283a 	ret
    2e74:	0109c83a 	sub	r4,zero,r4
    2e78:	04000044 	movi	r16,1
    2e7c:	283ff50e 	bge	r5,zero,2e54 <_gp+0xffff4cc4>
    2e80:	014bc83a 	sub	r5,zero,r5
    2e84:	8400005c 	xori	r16,r16,1
    2e88:	003ff206 	br	2e54 <_gp+0xffff4cc4>

00002e8c <__modsi3>:
    2e8c:	deffff04 	addi	sp,sp,-4
    2e90:	dfc00015 	stw	ra,0(sp)
    2e94:	20000516 	blt	r4,zero,2eac <__modsi3+0x20>
    2e98:	28000c16 	blt	r5,zero,2ecc <__modsi3+0x40>
    2e9c:	01800044 	movi	r6,1
    2ea0:	dfc00017 	ldw	ra,0(sp)
    2ea4:	dec00104 	addi	sp,sp,4
    2ea8:	0002dc81 	jmpi	2dc8 <udivmodsi4>
    2eac:	0109c83a 	sub	r4,zero,r4
    2eb0:	28000b16 	blt	r5,zero,2ee0 <__modsi3+0x54>
    2eb4:	01800044 	movi	r6,1
    2eb8:	0002dc80 	call	2dc8 <udivmodsi4>
    2ebc:	0085c83a 	sub	r2,zero,r2
    2ec0:	dfc00017 	ldw	ra,0(sp)
    2ec4:	dec00104 	addi	sp,sp,4
    2ec8:	f800283a 	ret
    2ecc:	014bc83a 	sub	r5,zero,r5
    2ed0:	01800044 	movi	r6,1
    2ed4:	dfc00017 	ldw	ra,0(sp)
    2ed8:	dec00104 	addi	sp,sp,4
    2edc:	0002dc81 	jmpi	2dc8 <udivmodsi4>
    2ee0:	014bc83a 	sub	r5,zero,r5
    2ee4:	003ff306 	br	2eb4 <_gp+0xffff4d24>

00002ee8 <__udivsi3>:
    2ee8:	000d883a 	mov	r6,zero
    2eec:	0002dc81 	jmpi	2dc8 <udivmodsi4>

00002ef0 <__umodsi3>:
    2ef0:	01800044 	movi	r6,1
    2ef4:	0002dc81 	jmpi	2dc8 <udivmodsi4>

00002ef8 <__muldi3>:
    2ef8:	20bfffcc 	andi	r2,r4,65535
    2efc:	2010d43a 	srli	r8,r4,16
    2f00:	30ffffcc 	andi	r3,r6,65535
    2f04:	3014d43a 	srli	r10,r6,16
    2f08:	1893383a 	mul	r9,r3,r2
    2f0c:	1a07383a 	mul	r3,r3,r8
    2f10:	5085383a 	mul	r2,r10,r2
    2f14:	4816d43a 	srli	r11,r9,16
    2f18:	5211383a 	mul	r8,r10,r8
    2f1c:	1885883a 	add	r2,r3,r2
    2f20:	12c5883a 	add	r2,r2,r11
    2f24:	10c0022e 	bgeu	r2,r3,2f30 <__muldi3+0x38>
    2f28:	00c00074 	movhi	r3,1
    2f2c:	40d1883a 	add	r8,r8,r3
    2f30:	1014d43a 	srli	r10,r2,16
    2f34:	21c9383a 	mul	r4,r4,r7
    2f38:	314d383a 	mul	r6,r6,r5
    2f3c:	1004943a 	slli	r2,r2,16
    2f40:	4291883a 	add	r8,r8,r10
    2f44:	4a7fffcc 	andi	r9,r9,65535
    2f48:	2187883a 	add	r3,r4,r6
    2f4c:	1245883a 	add	r2,r2,r9
    2f50:	1a07883a 	add	r3,r3,r8
    2f54:	f800283a 	ret

00002f58 <__clzsi2>:
    2f58:	00bfffd4 	movui	r2,65535
    2f5c:	11000b36 	bltu	r2,r4,2f8c <__clzsi2+0x34>
    2f60:	00803fc4 	movi	r2,255
    2f64:	11001e2e 	bgeu	r2,r4,2fe0 <__clzsi2+0x88>
    2f68:	00c00204 	movi	r3,8
    2f6c:	20c8d83a 	srl	r4,r4,r3
    2f70:	00c00034 	movhi	r3,0
    2f74:	18d67a04 	addi	r3,r3,23016
    2f78:	00800604 	movi	r2,24
    2f7c:	1909883a 	add	r4,r3,r4
    2f80:	20c00003 	ldbu	r3,0(r4)
    2f84:	10c5c83a 	sub	r2,r2,r3
    2f88:	f800283a 	ret
    2f8c:	00804034 	movhi	r2,256
    2f90:	10bfffc4 	addi	r2,r2,-1
    2f94:	11000936 	bltu	r2,r4,2fbc <__clzsi2+0x64>
    2f98:	00800404 	movi	r2,16
    2f9c:	1007883a 	mov	r3,r2
    2fa0:	20c8d83a 	srl	r4,r4,r3
    2fa4:	00c00034 	movhi	r3,0
    2fa8:	18d67a04 	addi	r3,r3,23016
    2fac:	1909883a 	add	r4,r3,r4
    2fb0:	20c00003 	ldbu	r3,0(r4)
    2fb4:	10c5c83a 	sub	r2,r2,r3
    2fb8:	f800283a 	ret
    2fbc:	00c00604 	movi	r3,24
    2fc0:	20c8d83a 	srl	r4,r4,r3
    2fc4:	00c00034 	movhi	r3,0
    2fc8:	18d67a04 	addi	r3,r3,23016
    2fcc:	00800204 	movi	r2,8
    2fd0:	1909883a 	add	r4,r3,r4
    2fd4:	20c00003 	ldbu	r3,0(r4)
    2fd8:	10c5c83a 	sub	r2,r2,r3
    2fdc:	f800283a 	ret
    2fe0:	0007883a 	mov	r3,zero
    2fe4:	20c8d83a 	srl	r4,r4,r3
    2fe8:	00c00034 	movhi	r3,0
    2fec:	18d67a04 	addi	r3,r3,23016
    2ff0:	00800804 	movi	r2,32
    2ff4:	1909883a 	add	r4,r3,r4
    2ff8:	20c00003 	ldbu	r3,0(r4)
    2ffc:	10c5c83a 	sub	r2,r2,r3
    3000:	f800283a 	ret

00003004 <__pack_f>:
    3004:	21400017 	ldw	r5,0(r4)
    3008:	01800044 	movi	r6,1
    300c:	20c00317 	ldw	r3,12(r4)
    3010:	21c00117 	ldw	r7,4(r4)
    3014:	3140282e 	bgeu	r6,r5,30b8 <__pack_f+0xb4>
    3018:	00800104 	movi	r2,4
    301c:	28802326 	beq	r5,r2,30ac <__pack_f+0xa8>
    3020:	00800084 	movi	r2,2
    3024:	28800f26 	beq	r5,r2,3064 <__pack_f+0x60>
    3028:	18000e26 	beq	r3,zero,3064 <__pack_f+0x60>
    302c:	21000217 	ldw	r4,8(r4)
    3030:	00bfe084 	movi	r2,-126
    3034:	20802616 	blt	r4,r2,30d0 <__pack_f+0xcc>
    3038:	00801fc4 	movi	r2,127
    303c:	11001b16 	blt	r2,r4,30ac <__pack_f+0xa8>
    3040:	188a703a 	and	r5,r3,r2
    3044:	00801004 	movi	r2,64
    3048:	28801126 	beq	r5,r2,3090 <__pack_f+0x8c>
    304c:	18c00fc4 	addi	r3,r3,63
    3050:	18001316 	blt	r3,zero,30a0 <__pack_f+0x9c>
    3054:	21001fc4 	addi	r4,r4,127
    3058:	180690ba 	slli	r3,r3,2
    305c:	1806d27a 	srli	r3,r3,9
    3060:	00000206 	br	306c <__pack_f+0x68>
    3064:	0009883a 	mov	r4,zero
    3068:	0007883a 	mov	r3,zero
    306c:	21003fcc 	andi	r4,r4,255
    3070:	200895fa 	slli	r4,r4,23
    3074:	380a97fa 	slli	r5,r7,31
    3078:	00802034 	movhi	r2,128
    307c:	10bfffc4 	addi	r2,r2,-1
    3080:	1886703a 	and	r3,r3,r2
    3084:	1904b03a 	or	r2,r3,r4
    3088:	1144b03a 	or	r2,r2,r5
    308c:	f800283a 	ret
    3090:	1880200c 	andi	r2,r3,128
    3094:	103fee26 	beq	r2,zero,3050 <_gp+0xffff4ec0>
    3098:	18c01004 	addi	r3,r3,64
    309c:	183fed0e 	bge	r3,zero,3054 <_gp+0xffff4ec4>
    30a0:	1806d07a 	srli	r3,r3,1
    30a4:	21002004 	addi	r4,r4,128
    30a8:	003feb06 	br	3058 <_gp+0xffff4ec8>
    30ac:	013fffc4 	movi	r4,-1
    30b0:	0007883a 	mov	r3,zero
    30b4:	003fed06 	br	306c <_gp+0xffff4edc>
    30b8:	18c00434 	orhi	r3,r3,16
    30bc:	00802034 	movhi	r2,128
    30c0:	10bfffc4 	addi	r2,r2,-1
    30c4:	1886703a 	and	r3,r3,r2
    30c8:	013fffc4 	movi	r4,-1
    30cc:	003fe706 	br	306c <_gp+0xffff4edc>
    30d0:	1105c83a 	sub	r2,r2,r4
    30d4:	01000644 	movi	r4,25
    30d8:	20801216 	blt	r4,r2,3124 <__pack_f+0x120>
    30dc:	3088983a 	sll	r4,r6,r2
    30e0:	1884d83a 	srl	r2,r3,r2
    30e4:	213fffc4 	addi	r4,r4,-1
    30e8:	20c6703a 	and	r3,r4,r3
    30ec:	1806c03a 	cmpne	r3,r3,zero
    30f0:	1884b03a 	or	r2,r3,r2
    30f4:	11001fcc 	andi	r4,r2,127
    30f8:	00c01004 	movi	r3,64
    30fc:	20c00a1e 	bne	r4,r3,3128 <__pack_f+0x124>
    3100:	10c0200c 	andi	r3,r2,128
    3104:	18000126 	beq	r3,zero,310c <__pack_f+0x108>
    3108:	10801004 	addi	r2,r2,64
    310c:	100690ba 	slli	r3,r2,2
    3110:	01100034 	movhi	r4,16384
    3114:	1105403a 	cmpgeu	r2,r2,r4
    3118:	1806d27a 	srli	r3,r3,9
    311c:	1009883a 	mov	r4,r2
    3120:	003fd206 	br	306c <_gp+0xffff4edc>
    3124:	0005883a 	mov	r2,zero
    3128:	10800fc4 	addi	r2,r2,63
    312c:	003ff706 	br	310c <_gp+0xffff4f7c>

00003130 <__unpack_f>:
    3130:	20c00017 	ldw	r3,0(r4)
    3134:	00802034 	movhi	r2,128
    3138:	10bfffc4 	addi	r2,r2,-1
    313c:	1808d5fa 	srli	r4,r3,23
    3140:	180cd7fa 	srli	r6,r3,31
    3144:	1884703a 	and	r2,r3,r2
    3148:	21003fcc 	andi	r4,r4,255
    314c:	29800115 	stw	r6,4(r5)
    3150:	2000111e 	bne	r4,zero,3198 <__unpack_f+0x68>
    3154:	10001a26 	beq	r2,zero,31c0 <__unpack_f+0x90>
    3158:	00ffe084 	movi	r3,-126
    315c:	100491fa 	slli	r2,r2,7
    3160:	28c00215 	stw	r3,8(r5)
    3164:	00c000c4 	movi	r3,3
    3168:	28c00015 	stw	r3,0(r5)
    316c:	01900034 	movhi	r6,16384
    3170:	31bfffc4 	addi	r6,r6,-1
    3174:	30801036 	bltu	r6,r2,31b8 <__unpack_f+0x88>
    3178:	00ffe044 	movi	r3,-127
    317c:	1085883a 	add	r2,r2,r2
    3180:	1809883a 	mov	r4,r3
    3184:	18ffffc4 	addi	r3,r3,-1
    3188:	30bffc2e 	bgeu	r6,r2,317c <_gp+0xffff4fec>
    318c:	29000215 	stw	r4,8(r5)
    3190:	28800315 	stw	r2,12(r5)
    3194:	f800283a 	ret
    3198:	01803fc4 	movi	r6,255
    319c:	21800b26 	beq	r4,r6,31cc <__unpack_f+0x9c>
    31a0:	100491fa 	slli	r2,r2,7
    31a4:	213fe044 	addi	r4,r4,-127
    31a8:	00c000c4 	movi	r3,3
    31ac:	10900034 	orhi	r2,r2,16384
    31b0:	29000215 	stw	r4,8(r5)
    31b4:	28c00015 	stw	r3,0(r5)
    31b8:	28800315 	stw	r2,12(r5)
    31bc:	f800283a 	ret
    31c0:	00800084 	movi	r2,2
    31c4:	28800015 	stw	r2,0(r5)
    31c8:	f800283a 	ret
    31cc:	10000526 	beq	r2,zero,31e4 <__unpack_f+0xb4>
    31d0:	18c0042c 	andhi	r3,r3,16
    31d4:	18000626 	beq	r3,zero,31f0 <__unpack_f+0xc0>
    31d8:	00c00044 	movi	r3,1
    31dc:	28c00015 	stw	r3,0(r5)
    31e0:	003ff506 	br	31b8 <_gp+0xffff5028>
    31e4:	00800104 	movi	r2,4
    31e8:	28800015 	stw	r2,0(r5)
    31ec:	f800283a 	ret
    31f0:	28000015 	stw	zero,0(r5)
    31f4:	003ff006 	br	31b8 <_gp+0xffff5028>

000031f8 <__fpcmp_parts_f>:
    31f8:	20c00017 	ldw	r3,0(r4)
    31fc:	00800044 	movi	r2,1
    3200:	10c0172e 	bgeu	r2,r3,3260 <__fpcmp_parts_f+0x68>
    3204:	29800017 	ldw	r6,0(r5)
    3208:	1180152e 	bgeu	r2,r6,3260 <__fpcmp_parts_f+0x68>
    320c:	01c00104 	movi	r7,4
    3210:	19c02326 	beq	r3,r7,32a0 <__fpcmp_parts_f+0xa8>
    3214:	31c00926 	beq	r6,r7,323c <__fpcmp_parts_f+0x44>
    3218:	01c00084 	movi	r7,2
    321c:	19c00626 	beq	r3,r7,3238 <__fpcmp_parts_f+0x40>
    3220:	31c01126 	beq	r6,r7,3268 <__fpcmp_parts_f+0x70>
    3224:	20c00117 	ldw	r3,4(r4)
    3228:	29800117 	ldw	r6,4(r5)
    322c:	19801226 	beq	r3,r6,3278 <__fpcmp_parts_f+0x80>
    3230:	1800041e 	bne	r3,zero,3244 <__fpcmp_parts_f+0x4c>
    3234:	f800283a 	ret
    3238:	30c01526 	beq	r6,r3,3290 <__fpcmp_parts_f+0x98>
    323c:	28800117 	ldw	r2,4(r5)
    3240:	1000071e 	bne	r2,zero,3260 <__fpcmp_parts_f+0x68>
    3244:	00bfffc4 	movi	r2,-1
    3248:	f800283a 	ret
    324c:	39801216 	blt	r7,r6,3298 <__fpcmp_parts_f+0xa0>
    3250:	21000317 	ldw	r4,12(r4)
    3254:	28800317 	ldw	r2,12(r5)
    3258:	11000c2e 	bgeu	r2,r4,328c <__fpcmp_parts_f+0x94>
    325c:	183ff91e 	bne	r3,zero,3244 <_gp+0xffff50b4>
    3260:	00800044 	movi	r2,1
    3264:	f800283a 	ret
    3268:	20800117 	ldw	r2,4(r4)
    326c:	103ff51e 	bne	r2,zero,3244 <_gp+0xffff50b4>
    3270:	00800044 	movi	r2,1
    3274:	f800283a 	ret
    3278:	21c00217 	ldw	r7,8(r4)
    327c:	29800217 	ldw	r6,8(r5)
    3280:	31fff20e 	bge	r6,r7,324c <_gp+0xffff50bc>
    3284:	183fef1e 	bne	r3,zero,3244 <_gp+0xffff50b4>
    3288:	f800283a 	ret
    328c:	20800236 	bltu	r4,r2,3298 <__fpcmp_parts_f+0xa0>
    3290:	0005883a 	mov	r2,zero
    3294:	f800283a 	ret
    3298:	183fea26 	beq	r3,zero,3244 <_gp+0xffff50b4>
    329c:	003ff006 	br	3260 <_gp+0xffff50d0>
    32a0:	30fff11e 	bne	r6,r3,3268 <_gp+0xffff50d8>
    32a4:	28c00117 	ldw	r3,4(r5)
    32a8:	20800117 	ldw	r2,4(r4)
    32ac:	1885c83a 	sub	r2,r3,r2
    32b0:	f800283a 	ret

000032b4 <__make_fp>:
    32b4:	defffb04 	addi	sp,sp,-20
    32b8:	d9000015 	stw	r4,0(sp)
    32bc:	d809883a 	mov	r4,sp
    32c0:	dfc00415 	stw	ra,16(sp)
    32c4:	d9400115 	stw	r5,4(sp)
    32c8:	d9800215 	stw	r6,8(sp)
    32cc:	d9c00315 	stw	r7,12(sp)
    32d0:	00030040 	call	3004 <__pack_f>
    32d4:	dfc00417 	ldw	ra,16(sp)
    32d8:	dec00504 	addi	sp,sp,20
    32dc:	f800283a 	ret

000032e0 <__pack_d>:
    32e0:	20800017 	ldw	r2,0(r4)
    32e4:	defff804 	addi	sp,sp,-32
    32e8:	dcc00315 	stw	r19,12(sp)
    32ec:	dc800215 	stw	r18,8(sp)
    32f0:	dfc00715 	stw	ra,28(sp)
    32f4:	dd800615 	stw	r22,24(sp)
    32f8:	dd400515 	stw	r21,20(sp)
    32fc:	dd000415 	stw	r20,16(sp)
    3300:	dc400115 	stw	r17,4(sp)
    3304:	dc000015 	stw	r16,0(sp)
    3308:	04800044 	movi	r18,1
    330c:	24400317 	ldw	r17,12(r4)
    3310:	24000417 	ldw	r16,16(r4)
    3314:	24c00117 	ldw	r19,4(r4)
    3318:	9080422e 	bgeu	r18,r2,3424 <__pack_d+0x144>
    331c:	00c00104 	movi	r3,4
    3320:	10c03c26 	beq	r2,r3,3414 <__pack_d+0x134>
    3324:	00c00084 	movi	r3,2
    3328:	10c01926 	beq	r2,r3,3390 <__pack_d+0xb0>
    332c:	8c04b03a 	or	r2,r17,r16
    3330:	10001726 	beq	r2,zero,3390 <__pack_d+0xb0>
    3334:	21000217 	ldw	r4,8(r4)
    3338:	00bf0084 	movi	r2,-1022
    333c:	20804016 	blt	r4,r2,3440 <__pack_d+0x160>
    3340:	0080ffc4 	movi	r2,1023
    3344:	11003316 	blt	r2,r4,3414 <__pack_d+0x134>
    3348:	88803fcc 	andi	r2,r17,255
    334c:	00c02004 	movi	r3,128
    3350:	10c02926 	beq	r2,r3,33f8 <__pack_d+0x118>
    3354:	88801fc4 	addi	r2,r17,127
    3358:	1463803a 	cmpltu	r17,r2,r17
    335c:	8c21883a 	add	r16,r17,r16
    3360:	1023883a 	mov	r17,r2
    3364:	00880034 	movhi	r2,8192
    3368:	10bfffc4 	addi	r2,r2,-1
    336c:	14001c36 	bltu	r2,r16,33e0 <__pack_d+0x100>
    3370:	2100ffc4 	addi	r4,r4,1023
    3374:	8006963a 	slli	r3,r16,24
    3378:	8804d23a 	srli	r2,r17,8
    337c:	8020913a 	slli	r16,r16,4
    3380:	2101ffcc 	andi	r4,r4,2047
    3384:	1884b03a 	or	r2,r3,r2
    3388:	8020d33a 	srli	r16,r16,12
    338c:	00000306 	br	339c <__pack_d+0xbc>
    3390:	0009883a 	mov	r4,zero
    3394:	0005883a 	mov	r2,zero
    3398:	0021883a 	mov	r16,zero
    339c:	2008953a 	slli	r4,r4,20
    33a0:	982697fa 	slli	r19,r19,31
    33a4:	00c00434 	movhi	r3,16
    33a8:	18ffffc4 	addi	r3,r3,-1
    33ac:	80e0703a 	and	r16,r16,r3
    33b0:	8106b03a 	or	r3,r16,r4
    33b4:	1cc6b03a 	or	r3,r3,r19
    33b8:	dfc00717 	ldw	ra,28(sp)
    33bc:	dd800617 	ldw	r22,24(sp)
    33c0:	dd400517 	ldw	r21,20(sp)
    33c4:	dd000417 	ldw	r20,16(sp)
    33c8:	dcc00317 	ldw	r19,12(sp)
    33cc:	dc800217 	ldw	r18,8(sp)
    33d0:	dc400117 	ldw	r17,4(sp)
    33d4:	dc000017 	ldw	r16,0(sp)
    33d8:	dec00804 	addi	sp,sp,32
    33dc:	f800283a 	ret
    33e0:	800697fa 	slli	r3,r16,31
    33e4:	8804d07a 	srli	r2,r17,1
    33e8:	21010004 	addi	r4,r4,1024
    33ec:	8020d07a 	srli	r16,r16,1
    33f0:	18a2b03a 	or	r17,r3,r2
    33f4:	003fdf06 	br	3374 <_gp+0xffff51e4>
    33f8:	88c0400c 	andi	r3,r17,256
    33fc:	183fd926 	beq	r3,zero,3364 <_gp+0xffff51d4>
    3400:	8885883a 	add	r2,r17,r2
    3404:	1463803a 	cmpltu	r17,r2,r17
    3408:	8c21883a 	add	r16,r17,r16
    340c:	1023883a 	mov	r17,r2
    3410:	003fd406 	br	3364 <_gp+0xffff51d4>
    3414:	0101ffc4 	movi	r4,2047
    3418:	0005883a 	mov	r2,zero
    341c:	0021883a 	mov	r16,zero
    3420:	003fde06 	br	339c <_gp+0xffff520c>
    3424:	84000234 	orhi	r16,r16,8
    3428:	00c00434 	movhi	r3,16
    342c:	18ffffc4 	addi	r3,r3,-1
    3430:	8805883a 	mov	r2,r17
    3434:	80e0703a 	and	r16,r16,r3
    3438:	0101ffc4 	movi	r4,2047
    343c:	003fd706 	br	339c <_gp+0xffff520c>
    3440:	1129c83a 	sub	r20,r2,r4
    3444:	00800e04 	movi	r2,56
    3448:	15002716 	blt	r2,r20,34e8 <__pack_d+0x208>
    344c:	800b883a 	mov	r5,r16
    3450:	a00d883a 	mov	r6,r20
    3454:	8809883a 	mov	r4,r17
    3458:	00036d80 	call	36d8 <__lshrdi3>
    345c:	9009883a 	mov	r4,r18
    3460:	000b883a 	mov	r5,zero
    3464:	a00d883a 	mov	r6,r20
    3468:	102d883a 	mov	r22,r2
    346c:	182b883a 	mov	r21,r3
    3470:	000371c0 	call	371c <__ashldi3>
    3474:	1009003a 	cmpeq	r4,r2,zero
    3478:	1907c83a 	sub	r3,r3,r4
    347c:	10bfffc4 	addi	r2,r2,-1
    3480:	1c20703a 	and	r16,r3,r16
    3484:	1444703a 	and	r2,r2,r17
    3488:	1404b03a 	or	r2,r2,r16
    348c:	1004c03a 	cmpne	r2,r2,zero
    3490:	1584b03a 	or	r2,r2,r22
    3494:	11003fcc 	andi	r4,r2,255
    3498:	01402004 	movi	r5,128
    349c:	a807883a 	mov	r3,r21
    34a0:	2140131e 	bne	r4,r5,34f0 <__pack_d+0x210>
    34a4:	1140400c 	andi	r5,r2,256
    34a8:	28000426 	beq	r5,zero,34bc <__pack_d+0x1dc>
    34ac:	1109883a 	add	r4,r2,r4
    34b0:	2085803a 	cmpltu	r2,r4,r2
    34b4:	1547883a 	add	r3,r2,r21
    34b8:	2005883a 	mov	r2,r4
    34bc:	1808963a 	slli	r4,r3,24
    34c0:	1004d23a 	srli	r2,r2,8
    34c4:	1820913a 	slli	r16,r3,4
    34c8:	01440034 	movhi	r5,4096
    34cc:	297fffc4 	addi	r5,r5,-1
    34d0:	2084b03a 	or	r2,r4,r2
    34d4:	8020d33a 	srli	r16,r16,12
    34d8:	01000044 	movi	r4,1
    34dc:	28ffaf36 	bltu	r5,r3,339c <_gp+0xffff520c>
    34e0:	0009883a 	mov	r4,zero
    34e4:	003fad06 	br	339c <_gp+0xffff520c>
    34e8:	0005883a 	mov	r2,zero
    34ec:	0007883a 	mov	r3,zero
    34f0:	11001fc4 	addi	r4,r2,127
    34f4:	2085803a 	cmpltu	r2,r4,r2
    34f8:	10c7883a 	add	r3,r2,r3
    34fc:	2005883a 	mov	r2,r4
    3500:	003fee06 	br	34bc <_gp+0xffff532c>

00003504 <__unpack_d>:
    3504:	21800117 	ldw	r6,4(r4)
    3508:	20c00017 	ldw	r3,0(r4)
    350c:	3004d7fa 	srli	r2,r6,31
    3510:	3008d53a 	srli	r4,r6,20
    3514:	28800115 	stw	r2,4(r5)
    3518:	2101ffcc 	andi	r4,r4,2047
    351c:	00800434 	movhi	r2,16
    3520:	10bfffc4 	addi	r2,r2,-1
    3524:	3084703a 	and	r2,r6,r2
    3528:	20001a1e 	bne	r4,zero,3594 <__unpack_d+0x90>
    352c:	1888b03a 	or	r4,r3,r2
    3530:	20002626 	beq	r4,zero,35cc <__unpack_d+0xc8>
    3534:	1808d63a 	srli	r4,r3,24
    3538:	1004923a 	slli	r2,r2,8
    353c:	01bf0084 	movi	r6,-1022
    3540:	29800215 	stw	r6,8(r5)
    3544:	2084b03a 	or	r2,r4,r2
    3548:	010000c4 	movi	r4,3
    354c:	29000015 	stw	r4,0(r5)
    3550:	02040034 	movhi	r8,4096
    3554:	423fffc4 	addi	r8,r8,-1
    3558:	1806923a 	slli	r3,r3,8
    355c:	40801836 	bltu	r8,r2,35c0 <__unpack_d+0xbc>
    3560:	013f0044 	movi	r4,-1023
    3564:	18cd883a 	add	r6,r3,r3
    3568:	30c7803a 	cmpltu	r3,r6,r3
    356c:	1085883a 	add	r2,r2,r2
    3570:	1885883a 	add	r2,r3,r2
    3574:	200f883a 	mov	r7,r4
    3578:	3007883a 	mov	r3,r6
    357c:	213fffc4 	addi	r4,r4,-1
    3580:	40bff82e 	bgeu	r8,r2,3564 <_gp+0xffff53d4>
    3584:	29c00215 	stw	r7,8(r5)
    3588:	28c00315 	stw	r3,12(r5)
    358c:	28800415 	stw	r2,16(r5)
    3590:	f800283a 	ret
    3594:	01c1ffc4 	movi	r7,2047
    3598:	21c00f26 	beq	r4,r7,35d8 <__unpack_d+0xd4>
    359c:	180cd63a 	srli	r6,r3,24
    35a0:	1004923a 	slli	r2,r2,8
    35a4:	213f0044 	addi	r4,r4,-1023
    35a8:	1806923a 	slli	r3,r3,8
    35ac:	3084b03a 	or	r2,r6,r2
    35b0:	29000215 	stw	r4,8(r5)
    35b4:	010000c4 	movi	r4,3
    35b8:	10840034 	orhi	r2,r2,4096
    35bc:	29000015 	stw	r4,0(r5)
    35c0:	28c00315 	stw	r3,12(r5)
    35c4:	28800415 	stw	r2,16(r5)
    35c8:	f800283a 	ret
    35cc:	00800084 	movi	r2,2
    35d0:	28800015 	stw	r2,0(r5)
    35d4:	f800283a 	ret
    35d8:	1888b03a 	or	r4,r3,r2
    35dc:	20000526 	beq	r4,zero,35f4 <__unpack_d+0xf0>
    35e0:	3180022c 	andhi	r6,r6,8
    35e4:	30000626 	beq	r6,zero,3600 <__unpack_d+0xfc>
    35e8:	01000044 	movi	r4,1
    35ec:	29000015 	stw	r4,0(r5)
    35f0:	003ff306 	br	35c0 <_gp+0xffff5430>
    35f4:	00800104 	movi	r2,4
    35f8:	28800015 	stw	r2,0(r5)
    35fc:	f800283a 	ret
    3600:	28000015 	stw	zero,0(r5)
    3604:	003fee06 	br	35c0 <_gp+0xffff5430>

00003608 <__fpcmp_parts_d>:
    3608:	20c00017 	ldw	r3,0(r4)
    360c:	00800044 	movi	r2,1
    3610:	10c0142e 	bgeu	r2,r3,3664 <__fpcmp_parts_d+0x5c>
    3614:	29800017 	ldw	r6,0(r5)
    3618:	1180122e 	bgeu	r2,r6,3664 <__fpcmp_parts_d+0x5c>
    361c:	01c00104 	movi	r7,4
    3620:	19c02826 	beq	r3,r7,36c4 <__fpcmp_parts_d+0xbc>
    3624:	31c00926 	beq	r6,r7,364c <__fpcmp_parts_d+0x44>
    3628:	01c00084 	movi	r7,2
    362c:	19c00626 	beq	r3,r7,3648 <__fpcmp_parts_d+0x40>
    3630:	31c00a26 	beq	r6,r7,365c <__fpcmp_parts_d+0x54>
    3634:	20c00117 	ldw	r3,4(r4)
    3638:	29800117 	ldw	r6,4(r5)
    363c:	19800b26 	beq	r3,r6,366c <__fpcmp_parts_d+0x64>
    3640:	1800041e 	bne	r3,zero,3654 <__fpcmp_parts_d+0x4c>
    3644:	f800283a 	ret
    3648:	30c01a26 	beq	r6,r3,36b4 <__fpcmp_parts_d+0xac>
    364c:	28800117 	ldw	r2,4(r5)
    3650:	1000041e 	bne	r2,zero,3664 <__fpcmp_parts_d+0x5c>
    3654:	00bfffc4 	movi	r2,-1
    3658:	f800283a 	ret
    365c:	20800117 	ldw	r2,4(r4)
    3660:	103ffc1e 	bne	r2,zero,3654 <_gp+0xffff54c4>
    3664:	00800044 	movi	r2,1
    3668:	f800283a 	ret
    366c:	21c00217 	ldw	r7,8(r4)
    3670:	29800217 	ldw	r6,8(r5)
    3674:	31c0020e 	bge	r6,r7,3680 <__fpcmp_parts_d+0x78>
    3678:	183ff61e 	bne	r3,zero,3654 <_gp+0xffff54c4>
    367c:	f800283a 	ret
    3680:	39800a16 	blt	r7,r6,36ac <__fpcmp_parts_d+0xa4>
    3684:	20800417 	ldw	r2,16(r4)
    3688:	29800417 	ldw	r6,16(r5)
    368c:	21c00317 	ldw	r7,12(r4)
    3690:	29000317 	ldw	r4,12(r5)
    3694:	30800936 	bltu	r6,r2,36bc <__fpcmp_parts_d+0xb4>
    3698:	1180011e 	bne	r2,r6,36a0 <__fpcmp_parts_d+0x98>
    369c:	21c00736 	bltu	r4,r7,36bc <__fpcmp_parts_d+0xb4>
    36a0:	11800236 	bltu	r2,r6,36ac <__fpcmp_parts_d+0xa4>
    36a4:	3080031e 	bne	r6,r2,36b4 <__fpcmp_parts_d+0xac>
    36a8:	3900022e 	bgeu	r7,r4,36b4 <__fpcmp_parts_d+0xac>
    36ac:	183fe926 	beq	r3,zero,3654 <_gp+0xffff54c4>
    36b0:	003fec06 	br	3664 <_gp+0xffff54d4>
    36b4:	0005883a 	mov	r2,zero
    36b8:	f800283a 	ret
    36bc:	183fe926 	beq	r3,zero,3664 <_gp+0xffff54d4>
    36c0:	003fe406 	br	3654 <_gp+0xffff54c4>
    36c4:	30ffe51e 	bne	r6,r3,365c <_gp+0xffff54cc>
    36c8:	28c00117 	ldw	r3,4(r5)
    36cc:	20800117 	ldw	r2,4(r4)
    36d0:	1885c83a 	sub	r2,r3,r2
    36d4:	f800283a 	ret

000036d8 <__lshrdi3>:
    36d8:	2005883a 	mov	r2,r4
    36dc:	2807883a 	mov	r3,r5
    36e0:	30000826 	beq	r6,zero,3704 <__lshrdi3+0x2c>
    36e4:	01000804 	movi	r4,32
    36e8:	2189c83a 	sub	r4,r4,r6
    36ec:	0100060e 	bge	zero,r4,3708 <__lshrdi3+0x30>
    36f0:	1184d83a 	srl	r2,r2,r6
    36f4:	2908983a 	sll	r4,r5,r4
    36f8:	298cd83a 	srl	r6,r5,r6
    36fc:	2084b03a 	or	r2,r4,r2
    3700:	3007883a 	mov	r3,r6
    3704:	f800283a 	ret
    3708:	0105c83a 	sub	r2,zero,r4
    370c:	000d883a 	mov	r6,zero
    3710:	2884d83a 	srl	r2,r5,r2
    3714:	3007883a 	mov	r3,r6
    3718:	003ffa06 	br	3704 <_gp+0xffff5574>

0000371c <__ashldi3>:
    371c:	2005883a 	mov	r2,r4
    3720:	2807883a 	mov	r3,r5
    3724:	30000826 	beq	r6,zero,3748 <__ashldi3+0x2c>
    3728:	01000804 	movi	r4,32
    372c:	2189c83a 	sub	r4,r4,r6
    3730:	0100060e 	bge	zero,r4,374c <__ashldi3+0x30>
    3734:	1108d83a 	srl	r4,r2,r4
    3738:	2986983a 	sll	r3,r5,r6
    373c:	118c983a 	sll	r6,r2,r6
    3740:	20c6b03a 	or	r3,r4,r3
    3744:	3005883a 	mov	r2,r6
    3748:	f800283a 	ret
    374c:	0107c83a 	sub	r3,zero,r4
    3750:	000d883a 	mov	r6,zero
    3754:	10c6983a 	sll	r3,r2,r3
    3758:	3005883a 	mov	r2,r6
    375c:	003ffa06 	br	3748 <_gp+0xffff55b8>

00003760 <__errno>:
    3760:	00800034 	movhi	r2,0
    3764:	10986a04 	addi	r2,r2,25000
    3768:	10800017 	ldw	r2,0(r2)
    376c:	f800283a 	ret

00003770 <memcpy>:
    3770:	00c003c4 	movi	r3,15
    3774:	2005883a 	mov	r2,r4
    3778:	3009883a 	mov	r4,r6
    377c:	1980032e 	bgeu	r3,r6,378c <memcpy+0x1c>
    3780:	2886b03a 	or	r3,r5,r2
    3784:	18c000cc 	andi	r3,r3,3
    3788:	18000926 	beq	r3,zero,37b0 <memcpy+0x40>
    378c:	1007883a 	mov	r3,r2
    3790:	290f883a 	add	r7,r5,r4
    3794:	20000526 	beq	r4,zero,37ac <memcpy+0x3c>
    3798:	29800003 	ldbu	r6,0(r5)
    379c:	18c00044 	addi	r3,r3,1
    37a0:	29400044 	addi	r5,r5,1
    37a4:	19bfffc5 	stb	r6,-1(r3)
    37a8:	29fffb1e 	bne	r5,r7,3798 <_gp+0xffff5608>
    37ac:	f800283a 	ret
    37b0:	327ffc04 	addi	r9,r6,-16
    37b4:	4812d13a 	srli	r9,r9,4
    37b8:	11000404 	addi	r4,r2,16
    37bc:	1007883a 	mov	r3,r2
    37c0:	4810913a 	slli	r8,r9,4
    37c4:	280f883a 	mov	r7,r5
    37c8:	2209883a 	add	r4,r4,r8
    37cc:	3a000017 	ldw	r8,0(r7)
    37d0:	18c00404 	addi	r3,r3,16
    37d4:	39c00404 	addi	r7,r7,16
    37d8:	1a3ffc15 	stw	r8,-16(r3)
    37dc:	3a3ffd17 	ldw	r8,-12(r7)
    37e0:	1a3ffd15 	stw	r8,-12(r3)
    37e4:	3a3ffe17 	ldw	r8,-8(r7)
    37e8:	1a3ffe15 	stw	r8,-8(r3)
    37ec:	3a3fff17 	ldw	r8,-4(r7)
    37f0:	1a3fff15 	stw	r8,-4(r3)
    37f4:	193ff51e 	bne	r3,r4,37cc <_gp+0xffff563c>
    37f8:	49c00044 	addi	r7,r9,1
    37fc:	380e913a 	slli	r7,r7,4
    3800:	310003cc 	andi	r4,r6,15
    3804:	018000c4 	movi	r6,3
    3808:	11c7883a 	add	r3,r2,r7
    380c:	29cb883a 	add	r5,r5,r7
    3810:	313fdf2e 	bgeu	r6,r4,3790 <_gp+0xffff5600>
    3814:	213fff04 	addi	r4,r4,-4
    3818:	2014d0ba 	srli	r10,r4,2
    381c:	1a400104 	addi	r9,r3,4
    3820:	180d883a 	mov	r6,r3
    3824:	528f883a 	add	r7,r10,r10
    3828:	39cf883a 	add	r7,r7,r7
    382c:	49d3883a 	add	r9,r9,r7
    3830:	280f883a 	mov	r7,r5
    3834:	3a000017 	ldw	r8,0(r7)
    3838:	31800104 	addi	r6,r6,4
    383c:	39c00104 	addi	r7,r7,4
    3840:	323fff15 	stw	r8,-4(r6)
    3844:	327ffb1e 	bne	r6,r9,3834 <_gp+0xffff56a4>
    3848:	51800044 	addi	r6,r10,1
    384c:	52bfff24 	muli	r10,r10,-4
    3850:	318d883a 	add	r6,r6,r6
    3854:	318d883a 	add	r6,r6,r6
    3858:	5109883a 	add	r4,r10,r4
    385c:	298b883a 	add	r5,r5,r6
    3860:	1987883a 	add	r3,r3,r6
    3864:	003fca06 	br	3790 <_gp+0xffff5600>

00003868 <memset>:
    3868:	00c000c4 	movi	r3,3
    386c:	2005883a 	mov	r2,r4
    3870:	29403fcc 	andi	r5,r5,255
    3874:	19802d2e 	bgeu	r3,r6,392c <memset+0xc4>
    3878:	20c6703a 	and	r3,r4,r3
    387c:	18002e1e 	bne	r3,zero,3938 <memset+0xd0>
    3880:	2806923a 	slli	r3,r5,8
    3884:	010003c4 	movi	r4,15
    3888:	3011883a 	mov	r8,r6
    388c:	1946b03a 	or	r3,r3,r5
    3890:	180e943a 	slli	r7,r3,16
    3894:	38ceb03a 	or	r7,r7,r3
    3898:	1007883a 	mov	r3,r2
    389c:	21800f2e 	bgeu	r4,r6,38dc <memset+0x74>
    38a0:	19c00015 	stw	r7,0(r3)
    38a4:	19c00115 	stw	r7,4(r3)
    38a8:	19c00215 	stw	r7,8(r3)
    38ac:	19c00315 	stw	r7,12(r3)
    38b0:	423ffc04 	addi	r8,r8,-16
    38b4:	18c00404 	addi	r3,r3,16
    38b8:	223ff936 	bltu	r4,r8,38a0 <_gp+0xffff5710>
    38bc:	30fffc04 	addi	r3,r6,-16
    38c0:	1806d13a 	srli	r3,r3,4
    38c4:	318003cc 	andi	r6,r6,15
    38c8:	010000c4 	movi	r4,3
    38cc:	18c00044 	addi	r3,r3,1
    38d0:	1806913a 	slli	r3,r3,4
    38d4:	10c7883a 	add	r3,r2,r3
    38d8:	21800e2e 	bgeu	r4,r6,3914 <memset+0xac>
    38dc:	1813883a 	mov	r9,r3
    38e0:	3011883a 	mov	r8,r6
    38e4:	010000c4 	movi	r4,3
    38e8:	49c00015 	stw	r7,0(r9)
    38ec:	423fff04 	addi	r8,r8,-4
    38f0:	4a400104 	addi	r9,r9,4
    38f4:	223ffc36 	bltu	r4,r8,38e8 <_gp+0xffff5758>
    38f8:	313fff04 	addi	r4,r6,-4
    38fc:	2008d0ba 	srli	r4,r4,2
    3900:	318000cc 	andi	r6,r6,3
    3904:	21000044 	addi	r4,r4,1
    3908:	2109883a 	add	r4,r4,r4
    390c:	2109883a 	add	r4,r4,r4
    3910:	1907883a 	add	r3,r3,r4
    3914:	30000a26 	beq	r6,zero,3940 <memset+0xd8>
    3918:	198d883a 	add	r6,r3,r6
    391c:	19400005 	stb	r5,0(r3)
    3920:	18c00044 	addi	r3,r3,1
    3924:	19bffd1e 	bne	r3,r6,391c <_gp+0xffff578c>
    3928:	f800283a 	ret
    392c:	2007883a 	mov	r3,r4
    3930:	303ff91e 	bne	r6,zero,3918 <_gp+0xffff5788>
    3934:	00000206 	br	3940 <memset+0xd8>
    3938:	2007883a 	mov	r3,r4
    393c:	003ff606 	br	3918 <_gp+0xffff5788>
    3940:	f800283a 	ret

00003944 <alt_alarm_start>:
    3944:	defff504 	addi	sp,sp,-44
    3948:	df000a15 	stw	fp,40(sp)
    394c:	df000a04 	addi	fp,sp,40
    3950:	e13ffc15 	stw	r4,-16(fp)
    3954:	e17ffd15 	stw	r5,-12(fp)
    3958:	e1bffe15 	stw	r6,-8(fp)
    395c:	e1ffff15 	stw	r7,-4(fp)
    3960:	e03ff615 	stw	zero,-40(fp)
    3964:	00800034 	movhi	r2,0
    3968:	109a2e04 	addi	r2,r2,26808
    396c:	10800017 	ldw	r2,0(r2)
    3970:	10003f26 	beq	r2,zero,3a70 <alt_alarm_start+0x12c>
    3974:	e0bffc17 	ldw	r2,-16(fp)
    3978:	10003b26 	beq	r2,zero,3a68 <alt_alarm_start+0x124>
    397c:	e0bffc17 	ldw	r2,-16(fp)
    3980:	e0fffe17 	ldw	r3,-8(fp)
    3984:	10c00315 	stw	r3,12(r2)
    3988:	e0bffc17 	ldw	r2,-16(fp)
    398c:	e0ffff17 	ldw	r3,-4(fp)
    3990:	10c00515 	stw	r3,20(r2)
    3994:	0005303a 	rdctl	r2,status
    3998:	e0bff815 	stw	r2,-32(fp)
    399c:	e0fff817 	ldw	r3,-32(fp)
    39a0:	00bfff84 	movi	r2,-2
    39a4:	1884703a 	and	r2,r3,r2
    39a8:	1001703a 	wrctl	status,r2
    39ac:	e0bff817 	ldw	r2,-32(fp)
    39b0:	e0bff715 	stw	r2,-36(fp)
    39b4:	00800034 	movhi	r2,0
    39b8:	109a2f04 	addi	r2,r2,26812
    39bc:	10800017 	ldw	r2,0(r2)
    39c0:	e0bff615 	stw	r2,-40(fp)
    39c4:	e0fffd17 	ldw	r3,-12(fp)
    39c8:	e0bff617 	ldw	r2,-40(fp)
    39cc:	1885883a 	add	r2,r3,r2
    39d0:	10c00044 	addi	r3,r2,1
    39d4:	e0bffc17 	ldw	r2,-16(fp)
    39d8:	10c00215 	stw	r3,8(r2)
    39dc:	e0bffc17 	ldw	r2,-16(fp)
    39e0:	10c00217 	ldw	r3,8(r2)
    39e4:	e0bff617 	ldw	r2,-40(fp)
    39e8:	1880042e 	bgeu	r3,r2,39fc <alt_alarm_start+0xb8>
    39ec:	e0bffc17 	ldw	r2,-16(fp)
    39f0:	00c00044 	movi	r3,1
    39f4:	10c00405 	stb	r3,16(r2)
    39f8:	00000206 	br	3a04 <alt_alarm_start+0xc0>
    39fc:	e0bffc17 	ldw	r2,-16(fp)
    3a00:	10000405 	stb	zero,16(r2)
    3a04:	e0bffc17 	ldw	r2,-16(fp)
    3a08:	00c00034 	movhi	r3,0
    3a0c:	18d86c04 	addi	r3,r3,25008
    3a10:	e0fff915 	stw	r3,-28(fp)
    3a14:	e0bffa15 	stw	r2,-24(fp)
    3a18:	e0bffa17 	ldw	r2,-24(fp)
    3a1c:	e0fff917 	ldw	r3,-28(fp)
    3a20:	10c00115 	stw	r3,4(r2)
    3a24:	e0bff917 	ldw	r2,-28(fp)
    3a28:	10c00017 	ldw	r3,0(r2)
    3a2c:	e0bffa17 	ldw	r2,-24(fp)
    3a30:	10c00015 	stw	r3,0(r2)
    3a34:	e0bff917 	ldw	r2,-28(fp)
    3a38:	10800017 	ldw	r2,0(r2)
    3a3c:	e0fffa17 	ldw	r3,-24(fp)
    3a40:	10c00115 	stw	r3,4(r2)
    3a44:	e0bff917 	ldw	r2,-28(fp)
    3a48:	e0fffa17 	ldw	r3,-24(fp)
    3a4c:	10c00015 	stw	r3,0(r2)
    3a50:	e0bff717 	ldw	r2,-36(fp)
    3a54:	e0bffb15 	stw	r2,-20(fp)
    3a58:	e0bffb17 	ldw	r2,-20(fp)
    3a5c:	1001703a 	wrctl	status,r2
    3a60:	0005883a 	mov	r2,zero
    3a64:	00000306 	br	3a74 <alt_alarm_start+0x130>
    3a68:	00bffa84 	movi	r2,-22
    3a6c:	00000106 	br	3a74 <alt_alarm_start+0x130>
    3a70:	00bfde84 	movi	r2,-134
    3a74:	e037883a 	mov	sp,fp
    3a78:	df000017 	ldw	fp,0(sp)
    3a7c:	dec00104 	addi	sp,sp,4
    3a80:	f800283a 	ret

00003a84 <alt_ic_isr_register>:
    3a84:	defff904 	addi	sp,sp,-28
    3a88:	dfc00615 	stw	ra,24(sp)
    3a8c:	df000515 	stw	fp,20(sp)
    3a90:	df000504 	addi	fp,sp,20
    3a94:	e13ffc15 	stw	r4,-16(fp)
    3a98:	e17ffd15 	stw	r5,-12(fp)
    3a9c:	e1bffe15 	stw	r6,-8(fp)
    3aa0:	e1ffff15 	stw	r7,-4(fp)
    3aa4:	e0800217 	ldw	r2,8(fp)
    3aa8:	d8800015 	stw	r2,0(sp)
    3aac:	e13ffc17 	ldw	r4,-16(fp)
    3ab0:	e17ffd17 	ldw	r5,-12(fp)
    3ab4:	e1bffe17 	ldw	r6,-8(fp)
    3ab8:	e1ffff17 	ldw	r7,-4(fp)
    3abc:	0003c5c0 	call	3c5c <alt_iic_isr_register>
    3ac0:	e037883a 	mov	sp,fp
    3ac4:	dfc00117 	ldw	ra,4(sp)
    3ac8:	df000017 	ldw	fp,0(sp)
    3acc:	dec00204 	addi	sp,sp,8
    3ad0:	f800283a 	ret

00003ad4 <alt_ic_irq_enable>:
    3ad4:	defff904 	addi	sp,sp,-28
    3ad8:	df000615 	stw	fp,24(sp)
    3adc:	df000604 	addi	fp,sp,24
    3ae0:	e13ffe15 	stw	r4,-8(fp)
    3ae4:	e17fff15 	stw	r5,-4(fp)
    3ae8:	e0bfff17 	ldw	r2,-4(fp)
    3aec:	e0bffa15 	stw	r2,-24(fp)
    3af0:	0005303a 	rdctl	r2,status
    3af4:	e0bffb15 	stw	r2,-20(fp)
    3af8:	e0fffb17 	ldw	r3,-20(fp)
    3afc:	00bfff84 	movi	r2,-2
    3b00:	1884703a 	and	r2,r3,r2
    3b04:	1001703a 	wrctl	status,r2
    3b08:	e0bffb17 	ldw	r2,-20(fp)
    3b0c:	e0bffc15 	stw	r2,-16(fp)
    3b10:	e0bffa17 	ldw	r2,-24(fp)
    3b14:	00c00044 	movi	r3,1
    3b18:	1884983a 	sll	r2,r3,r2
    3b1c:	1007883a 	mov	r3,r2
    3b20:	00800034 	movhi	r2,0
    3b24:	109a2a04 	addi	r2,r2,26792
    3b28:	10800017 	ldw	r2,0(r2)
    3b2c:	1886b03a 	or	r3,r3,r2
    3b30:	00800034 	movhi	r2,0
    3b34:	109a2a04 	addi	r2,r2,26792
    3b38:	10c00015 	stw	r3,0(r2)
    3b3c:	00800034 	movhi	r2,0
    3b40:	109a2a04 	addi	r2,r2,26792
    3b44:	10800017 	ldw	r2,0(r2)
    3b48:	100170fa 	wrctl	ienable,r2
    3b4c:	e0bffc17 	ldw	r2,-16(fp)
    3b50:	e0bffd15 	stw	r2,-12(fp)
    3b54:	e0bffd17 	ldw	r2,-12(fp)
    3b58:	1001703a 	wrctl	status,r2
    3b5c:	0005883a 	mov	r2,zero
    3b60:	e037883a 	mov	sp,fp
    3b64:	df000017 	ldw	fp,0(sp)
    3b68:	dec00104 	addi	sp,sp,4
    3b6c:	f800283a 	ret

00003b70 <alt_ic_irq_disable>:
    3b70:	defff904 	addi	sp,sp,-28
    3b74:	df000615 	stw	fp,24(sp)
    3b78:	df000604 	addi	fp,sp,24
    3b7c:	e13ffe15 	stw	r4,-8(fp)
    3b80:	e17fff15 	stw	r5,-4(fp)
    3b84:	e0bfff17 	ldw	r2,-4(fp)
    3b88:	e0bffa15 	stw	r2,-24(fp)
    3b8c:	0005303a 	rdctl	r2,status
    3b90:	e0bffb15 	stw	r2,-20(fp)
    3b94:	e0fffb17 	ldw	r3,-20(fp)
    3b98:	00bfff84 	movi	r2,-2
    3b9c:	1884703a 	and	r2,r3,r2
    3ba0:	1001703a 	wrctl	status,r2
    3ba4:	e0bffb17 	ldw	r2,-20(fp)
    3ba8:	e0bffc15 	stw	r2,-16(fp)
    3bac:	e0bffa17 	ldw	r2,-24(fp)
    3bb0:	00c00044 	movi	r3,1
    3bb4:	1884983a 	sll	r2,r3,r2
    3bb8:	0084303a 	nor	r2,zero,r2
    3bbc:	1007883a 	mov	r3,r2
    3bc0:	00800034 	movhi	r2,0
    3bc4:	109a2a04 	addi	r2,r2,26792
    3bc8:	10800017 	ldw	r2,0(r2)
    3bcc:	1886703a 	and	r3,r3,r2
    3bd0:	00800034 	movhi	r2,0
    3bd4:	109a2a04 	addi	r2,r2,26792
    3bd8:	10c00015 	stw	r3,0(r2)
    3bdc:	00800034 	movhi	r2,0
    3be0:	109a2a04 	addi	r2,r2,26792
    3be4:	10800017 	ldw	r2,0(r2)
    3be8:	100170fa 	wrctl	ienable,r2
    3bec:	e0bffc17 	ldw	r2,-16(fp)
    3bf0:	e0bffd15 	stw	r2,-12(fp)
    3bf4:	e0bffd17 	ldw	r2,-12(fp)
    3bf8:	1001703a 	wrctl	status,r2
    3bfc:	0005883a 	mov	r2,zero
    3c00:	e037883a 	mov	sp,fp
    3c04:	df000017 	ldw	fp,0(sp)
    3c08:	dec00104 	addi	sp,sp,4
    3c0c:	f800283a 	ret

00003c10 <alt_ic_irq_enabled>:
    3c10:	defffc04 	addi	sp,sp,-16
    3c14:	df000315 	stw	fp,12(sp)
    3c18:	df000304 	addi	fp,sp,12
    3c1c:	e13ffe15 	stw	r4,-8(fp)
    3c20:	e17fff15 	stw	r5,-4(fp)
    3c24:	000530fa 	rdctl	r2,ienable
    3c28:	e0bffd15 	stw	r2,-12(fp)
    3c2c:	e0bfff17 	ldw	r2,-4(fp)
    3c30:	00c00044 	movi	r3,1
    3c34:	1884983a 	sll	r2,r3,r2
    3c38:	1007883a 	mov	r3,r2
    3c3c:	e0bffd17 	ldw	r2,-12(fp)
    3c40:	1884703a 	and	r2,r3,r2
    3c44:	1004c03a 	cmpne	r2,r2,zero
    3c48:	10803fcc 	andi	r2,r2,255
    3c4c:	e037883a 	mov	sp,fp
    3c50:	df000017 	ldw	fp,0(sp)
    3c54:	dec00104 	addi	sp,sp,4
    3c58:	f800283a 	ret

00003c5c <alt_iic_isr_register>:
    3c5c:	defff504 	addi	sp,sp,-44
    3c60:	dfc00a15 	stw	ra,40(sp)
    3c64:	df000915 	stw	fp,36(sp)
    3c68:	df000904 	addi	fp,sp,36
    3c6c:	e13ffc15 	stw	r4,-16(fp)
    3c70:	e17ffd15 	stw	r5,-12(fp)
    3c74:	e1bffe15 	stw	r6,-8(fp)
    3c78:	e1ffff15 	stw	r7,-4(fp)
    3c7c:	00bffa84 	movi	r2,-22
    3c80:	e0bff715 	stw	r2,-36(fp)
    3c84:	e0bffd17 	ldw	r2,-12(fp)
    3c88:	e0bff815 	stw	r2,-32(fp)
    3c8c:	e0bff817 	ldw	r2,-32(fp)
    3c90:	10800808 	cmpgei	r2,r2,32
    3c94:	1000271e 	bne	r2,zero,3d34 <alt_iic_isr_register+0xd8>
    3c98:	0005303a 	rdctl	r2,status
    3c9c:	e0bffa15 	stw	r2,-24(fp)
    3ca0:	e0fffa17 	ldw	r3,-24(fp)
    3ca4:	00bfff84 	movi	r2,-2
    3ca8:	1884703a 	and	r2,r3,r2
    3cac:	1001703a 	wrctl	status,r2
    3cb0:	e0bffa17 	ldw	r2,-24(fp)
    3cb4:	e0bff915 	stw	r2,-28(fp)
    3cb8:	00c00034 	movhi	r3,0
    3cbc:	18dc4104 	addi	r3,r3,28932
    3cc0:	e0bff817 	ldw	r2,-32(fp)
    3cc4:	100490fa 	slli	r2,r2,3
    3cc8:	1885883a 	add	r2,r3,r2
    3ccc:	e0fffe17 	ldw	r3,-8(fp)
    3cd0:	10c00015 	stw	r3,0(r2)
    3cd4:	00c00034 	movhi	r3,0
    3cd8:	18dc4104 	addi	r3,r3,28932
    3cdc:	e0bff817 	ldw	r2,-32(fp)
    3ce0:	100490fa 	slli	r2,r2,3
    3ce4:	1885883a 	add	r2,r3,r2
    3ce8:	10800104 	addi	r2,r2,4
    3cec:	e0ffff17 	ldw	r3,-4(fp)
    3cf0:	10c00015 	stw	r3,0(r2)
    3cf4:	e0bffe17 	ldw	r2,-8(fp)
    3cf8:	10000526 	beq	r2,zero,3d10 <alt_iic_isr_register+0xb4>
    3cfc:	e0bff817 	ldw	r2,-32(fp)
    3d00:	e13ffc17 	ldw	r4,-16(fp)
    3d04:	100b883a 	mov	r5,r2
    3d08:	0003ad40 	call	3ad4 <alt_ic_irq_enable>
    3d0c:	00000406 	br	3d20 <alt_iic_isr_register+0xc4>
    3d10:	e0bff817 	ldw	r2,-32(fp)
    3d14:	e13ffc17 	ldw	r4,-16(fp)
    3d18:	100b883a 	mov	r5,r2
    3d1c:	0003b700 	call	3b70 <alt_ic_irq_disable>
    3d20:	e0bff715 	stw	r2,-36(fp)
    3d24:	e0bff917 	ldw	r2,-28(fp)
    3d28:	e0bffb15 	stw	r2,-20(fp)
    3d2c:	e0bffb17 	ldw	r2,-20(fp)
    3d30:	1001703a 	wrctl	status,r2
    3d34:	e0bff717 	ldw	r2,-36(fp)
    3d38:	e037883a 	mov	sp,fp
    3d3c:	dfc00117 	ldw	ra,4(sp)
    3d40:	df000017 	ldw	fp,0(sp)
    3d44:	dec00204 	addi	sp,sp,8
    3d48:	f800283a 	ret

00003d4c <alt_load_section>:
    3d4c:	defffc04 	addi	sp,sp,-16
    3d50:	df000315 	stw	fp,12(sp)
    3d54:	df000304 	addi	fp,sp,12
    3d58:	e13ffd15 	stw	r4,-12(fp)
    3d5c:	e17ffe15 	stw	r5,-8(fp)
    3d60:	e1bfff15 	stw	r6,-4(fp)
    3d64:	e0fffe17 	ldw	r3,-8(fp)
    3d68:	e0bffd17 	ldw	r2,-12(fp)
    3d6c:	18800e26 	beq	r3,r2,3da8 <alt_load_section+0x5c>
    3d70:	00000a06 	br	3d9c <alt_load_section+0x50>
    3d74:	e0bffd17 	ldw	r2,-12(fp)
    3d78:	10c00017 	ldw	r3,0(r2)
    3d7c:	e0bffe17 	ldw	r2,-8(fp)
    3d80:	10c00015 	stw	r3,0(r2)
    3d84:	e0bffe17 	ldw	r2,-8(fp)
    3d88:	10800104 	addi	r2,r2,4
    3d8c:	e0bffe15 	stw	r2,-8(fp)
    3d90:	e0bffd17 	ldw	r2,-12(fp)
    3d94:	10800104 	addi	r2,r2,4
    3d98:	e0bffd15 	stw	r2,-12(fp)
    3d9c:	e0fffe17 	ldw	r3,-8(fp)
    3da0:	e0bfff17 	ldw	r2,-4(fp)
    3da4:	18bff31e 	bne	r3,r2,3d74 <_gp+0xffff5be4>
    3da8:	e037883a 	mov	sp,fp
    3dac:	df000017 	ldw	fp,0(sp)
    3db0:	dec00104 	addi	sp,sp,4
    3db4:	f800283a 	ret

00003db8 <alt_load>:
    3db8:	defffe04 	addi	sp,sp,-8
    3dbc:	dfc00115 	stw	ra,4(sp)
    3dc0:	df000015 	stw	fp,0(sp)
    3dc4:	d839883a 	mov	fp,sp
    3dc8:	01000034 	movhi	r4,0
    3dcc:	21187404 	addi	r4,r4,25040
    3dd0:	01400034 	movhi	r5,0
    3dd4:	2956c604 	addi	r5,r5,23320
    3dd8:	01800034 	movhi	r6,0
    3ddc:	31987404 	addi	r6,r6,25040
    3de0:	0003d4c0 	call	3d4c <alt_load_section>
    3de4:	01000034 	movhi	r4,0
    3de8:	21000804 	addi	r4,r4,32
    3dec:	01400034 	movhi	r5,0
    3df0:	29400804 	addi	r5,r5,32
    3df4:	01800034 	movhi	r6,0
    3df8:	31806e04 	addi	r6,r6,440
    3dfc:	0003d4c0 	call	3d4c <alt_load_section>
    3e00:	01000034 	movhi	r4,0
    3e04:	21166f04 	addi	r4,r4,22972
    3e08:	01400034 	movhi	r5,0
    3e0c:	29566f04 	addi	r5,r5,22972
    3e10:	01800034 	movhi	r6,0
    3e14:	3196c604 	addi	r6,r6,23320
    3e18:	0003d4c0 	call	3d4c <alt_load_section>
    3e1c:	0004c080 	call	4c08 <alt_dcache_flush_all>
    3e20:	0004e200 	call	4e20 <alt_icache_flush_all>
    3e24:	e037883a 	mov	sp,fp
    3e28:	dfc00117 	ldw	ra,4(sp)
    3e2c:	df000017 	ldw	fp,0(sp)
    3e30:	dec00204 	addi	sp,sp,8
    3e34:	f800283a 	ret

00003e38 <alt_main>:
    3e38:	defffd04 	addi	sp,sp,-12
    3e3c:	dfc00215 	stw	ra,8(sp)
    3e40:	df000115 	stw	fp,4(sp)
    3e44:	df000104 	addi	fp,sp,4
    3e48:	0009883a 	mov	r4,zero
    3e4c:	00040840 	call	4084 <alt_irq_init>
    3e50:	0001883a 	nop
    3e54:	00040b80 	call	40b8 <alt_sys_init>
    3e58:	01000034 	movhi	r4,0
    3e5c:	2116bb04 	addi	r4,r4,23276
    3e60:	01400034 	movhi	r5,0
    3e64:	2956bb04 	addi	r5,r5,23276
    3e68:	01800034 	movhi	r6,0
    3e6c:	3196bb04 	addi	r6,r6,23276
    3e70:	0004f100 	call	4f10 <alt_io_redirect>
    3e74:	0004d680 	call	4d68 <_do_ctors>
    3e78:	01000034 	movhi	r4,0
    3e7c:	21137104 	addi	r4,r4,19908
    3e80:	000555c0 	call	555c <atexit>
    3e84:	d121c717 	ldw	r4,-30948(gp)
    3e88:	d0e1c817 	ldw	r3,-30944(gp)
    3e8c:	d0a1c917 	ldw	r2,-30940(gp)
    3e90:	180b883a 	mov	r5,r3
    3e94:	100d883a 	mov	r6,r2
    3e98:	00003700 	call	370 <main>
    3e9c:	e0bfff15 	stw	r2,-4(fp)
    3ea0:	01000044 	movi	r4,1
    3ea4:	0004b400 	call	4b40 <close>
    3ea8:	e13fff17 	ldw	r4,-4(fp)
    3eac:	00055700 	call	5570 <exit>

00003eb0 <alt_alarm_stop>:
    3eb0:	defffa04 	addi	sp,sp,-24
    3eb4:	df000515 	stw	fp,20(sp)
    3eb8:	df000504 	addi	fp,sp,20
    3ebc:	e13fff15 	stw	r4,-4(fp)
    3ec0:	0005303a 	rdctl	r2,status
    3ec4:	e0bffc15 	stw	r2,-16(fp)
    3ec8:	e0fffc17 	ldw	r3,-16(fp)
    3ecc:	00bfff84 	movi	r2,-2
    3ed0:	1884703a 	and	r2,r3,r2
    3ed4:	1001703a 	wrctl	status,r2
    3ed8:	e0bffc17 	ldw	r2,-16(fp)
    3edc:	e0bffb15 	stw	r2,-20(fp)
    3ee0:	e0bfff17 	ldw	r2,-4(fp)
    3ee4:	e0bffd15 	stw	r2,-12(fp)
    3ee8:	e0bffd17 	ldw	r2,-12(fp)
    3eec:	10800017 	ldw	r2,0(r2)
    3ef0:	e0fffd17 	ldw	r3,-12(fp)
    3ef4:	18c00117 	ldw	r3,4(r3)
    3ef8:	10c00115 	stw	r3,4(r2)
    3efc:	e0bffd17 	ldw	r2,-12(fp)
    3f00:	10800117 	ldw	r2,4(r2)
    3f04:	e0fffd17 	ldw	r3,-12(fp)
    3f08:	18c00017 	ldw	r3,0(r3)
    3f0c:	10c00015 	stw	r3,0(r2)
    3f10:	e0bffd17 	ldw	r2,-12(fp)
    3f14:	e0fffd17 	ldw	r3,-12(fp)
    3f18:	10c00115 	stw	r3,4(r2)
    3f1c:	e0bffd17 	ldw	r2,-12(fp)
    3f20:	e0fffd17 	ldw	r3,-12(fp)
    3f24:	10c00015 	stw	r3,0(r2)
    3f28:	e0bffb17 	ldw	r2,-20(fp)
    3f2c:	e0bffe15 	stw	r2,-8(fp)
    3f30:	e0bffe17 	ldw	r2,-8(fp)
    3f34:	1001703a 	wrctl	status,r2
    3f38:	e037883a 	mov	sp,fp
    3f3c:	df000017 	ldw	fp,0(sp)
    3f40:	dec00104 	addi	sp,sp,4
    3f44:	f800283a 	ret

00003f48 <alt_tick>:
    3f48:	defffb04 	addi	sp,sp,-20
    3f4c:	dfc00415 	stw	ra,16(sp)
    3f50:	df000315 	stw	fp,12(sp)
    3f54:	df000304 	addi	fp,sp,12
    3f58:	d0a00817 	ldw	r2,-32736(gp)
    3f5c:	e0bffd15 	stw	r2,-12(fp)
    3f60:	d0a1cb17 	ldw	r2,-30932(gp)
    3f64:	10800044 	addi	r2,r2,1
    3f68:	d0a1cb15 	stw	r2,-30932(gp)
    3f6c:	00002e06 	br	4028 <alt_tick+0xe0>
    3f70:	e0bffd17 	ldw	r2,-12(fp)
    3f74:	10800017 	ldw	r2,0(r2)
    3f78:	e0bffe15 	stw	r2,-8(fp)
    3f7c:	e0bffd17 	ldw	r2,-12(fp)
    3f80:	10800403 	ldbu	r2,16(r2)
    3f84:	10803fcc 	andi	r2,r2,255
    3f88:	10000426 	beq	r2,zero,3f9c <alt_tick+0x54>
    3f8c:	d0a1cb17 	ldw	r2,-30932(gp)
    3f90:	1000021e 	bne	r2,zero,3f9c <alt_tick+0x54>
    3f94:	e0bffd17 	ldw	r2,-12(fp)
    3f98:	10000405 	stb	zero,16(r2)
    3f9c:	e0bffd17 	ldw	r2,-12(fp)
    3fa0:	10800217 	ldw	r2,8(r2)
    3fa4:	d0e1cb17 	ldw	r3,-30932(gp)
    3fa8:	18801d36 	bltu	r3,r2,4020 <alt_tick+0xd8>
    3fac:	e0bffd17 	ldw	r2,-12(fp)
    3fb0:	10800403 	ldbu	r2,16(r2)
    3fb4:	10803fcc 	andi	r2,r2,255
    3fb8:	1000191e 	bne	r2,zero,4020 <alt_tick+0xd8>
    3fbc:	e0bffd17 	ldw	r2,-12(fp)
    3fc0:	10c00317 	ldw	r3,12(r2)
    3fc4:	e0bffd17 	ldw	r2,-12(fp)
    3fc8:	10800517 	ldw	r2,20(r2)
    3fcc:	1009883a 	mov	r4,r2
    3fd0:	183ee83a 	callr	r3
    3fd4:	e0bfff15 	stw	r2,-4(fp)
    3fd8:	e0bfff17 	ldw	r2,-4(fp)
    3fdc:	1000031e 	bne	r2,zero,3fec <alt_tick+0xa4>
    3fe0:	e13ffd17 	ldw	r4,-12(fp)
    3fe4:	0003eb00 	call	3eb0 <alt_alarm_stop>
    3fe8:	00000d06 	br	4020 <alt_tick+0xd8>
    3fec:	e0bffd17 	ldw	r2,-12(fp)
    3ff0:	10c00217 	ldw	r3,8(r2)
    3ff4:	e0bfff17 	ldw	r2,-4(fp)
    3ff8:	1887883a 	add	r3,r3,r2
    3ffc:	e0bffd17 	ldw	r2,-12(fp)
    4000:	10c00215 	stw	r3,8(r2)
    4004:	e0bffd17 	ldw	r2,-12(fp)
    4008:	10c00217 	ldw	r3,8(r2)
    400c:	d0a1cb17 	ldw	r2,-30932(gp)
    4010:	1880032e 	bgeu	r3,r2,4020 <alt_tick+0xd8>
    4014:	e0bffd17 	ldw	r2,-12(fp)
    4018:	00c00044 	movi	r3,1
    401c:	10c00405 	stb	r3,16(r2)
    4020:	e0bffe17 	ldw	r2,-8(fp)
    4024:	e0bffd15 	stw	r2,-12(fp)
    4028:	e0fffd17 	ldw	r3,-12(fp)
    402c:	d0a00804 	addi	r2,gp,-32736
    4030:	18bfcf1e 	bne	r3,r2,3f70 <_gp+0xffff5de0>
    4034:	0001883a 	nop
    4038:	e037883a 	mov	sp,fp
    403c:	dfc00117 	ldw	ra,4(sp)
    4040:	df000017 	ldw	fp,0(sp)
    4044:	dec00204 	addi	sp,sp,8
    4048:	f800283a 	ret

0000404c <alt_dev_reg>:
    404c:	defffd04 	addi	sp,sp,-12
    4050:	dfc00215 	stw	ra,8(sp)
    4054:	df000115 	stw	fp,4(sp)
    4058:	df000104 	addi	fp,sp,4
    405c:	e13fff15 	stw	r4,-4(fp)
    4060:	e13fff17 	ldw	r4,-4(fp)
    4064:	01400034 	movhi	r5,0
    4068:	29587004 	addi	r5,r5,25024
    406c:	0004cc80 	call	4cc8 <alt_dev_llist_insert>
    4070:	e037883a 	mov	sp,fp
    4074:	dfc00117 	ldw	ra,4(sp)
    4078:	df000017 	ldw	fp,0(sp)
    407c:	dec00204 	addi	sp,sp,8
    4080:	f800283a 	ret

00004084 <alt_irq_init>:
    4084:	defffd04 	addi	sp,sp,-12
    4088:	dfc00215 	stw	ra,8(sp)
    408c:	df000115 	stw	fp,4(sp)
    4090:	df000104 	addi	fp,sp,4
    4094:	e13fff15 	stw	r4,-4(fp)
    4098:	00052580 	call	5258 <altera_nios2_qsys_irq_init>
    409c:	00800044 	movi	r2,1
    40a0:	1001703a 	wrctl	status,r2
    40a4:	e037883a 	mov	sp,fp
    40a8:	dfc00117 	ldw	ra,4(sp)
    40ac:	df000017 	ldw	fp,0(sp)
    40b0:	dec00204 	addi	sp,sp,8
    40b4:	f800283a 	ret

000040b8 <alt_sys_init>:
    40b8:	defffe04 	addi	sp,sp,-8
    40bc:	dfc00115 	stw	ra,4(sp)
    40c0:	df000015 	stw	fp,0(sp)
    40c4:	d839883a 	mov	fp,sp
    40c8:	0125e014 	movui	r4,38784
    40cc:	000b883a 	mov	r5,zero
    40d0:	000d883a 	mov	r6,zero
    40d4:	01c0fa04 	movi	r7,1000
    40d8:	00041880 	call	4188 <alt_avalon_timer_sc_init>
    40dc:	0001883a 	nop
    40e0:	01000034 	movhi	r4,0
    40e4:	2117d304 	addi	r4,r4,24396
    40e8:	000b883a 	mov	r5,zero
    40ec:	01800044 	movi	r6,1
    40f0:	00043200 	call	4320 <altera_avalon_uart_init>
    40f4:	01000034 	movhi	r4,0
    40f8:	2117c904 	addi	r4,r4,24356
    40fc:	000404c0 	call	404c <alt_dev_reg>
    4100:	e037883a 	mov	sp,fp
    4104:	dfc00117 	ldw	ra,4(sp)
    4108:	df000017 	ldw	fp,0(sp)
    410c:	dec00204 	addi	sp,sp,8
    4110:	f800283a 	ret

00004114 <alt_avalon_timer_sc_irq>:
    4114:	defffa04 	addi	sp,sp,-24
    4118:	dfc00515 	stw	ra,20(sp)
    411c:	df000415 	stw	fp,16(sp)
    4120:	df000404 	addi	fp,sp,16
    4124:	e13fff15 	stw	r4,-4(fp)
    4128:	0007883a 	mov	r3,zero
    412c:	e0bfff17 	ldw	r2,-4(fp)
    4130:	10c00035 	stwio	r3,0(r2)
    4134:	e0bfff17 	ldw	r2,-4(fp)
    4138:	10800104 	addi	r2,r2,4
    413c:	10800037 	ldwio	r2,0(r2)
    4140:	0005303a 	rdctl	r2,status
    4144:	e0bffd15 	stw	r2,-12(fp)
    4148:	e0fffd17 	ldw	r3,-12(fp)
    414c:	00bfff84 	movi	r2,-2
    4150:	1884703a 	and	r2,r3,r2
    4154:	1001703a 	wrctl	status,r2
    4158:	e0bffd17 	ldw	r2,-12(fp)
    415c:	e0bffc15 	stw	r2,-16(fp)
    4160:	0003f480 	call	3f48 <alt_tick>
    4164:	e0bffc17 	ldw	r2,-16(fp)
    4168:	e0bffe15 	stw	r2,-8(fp)
    416c:	e0bffe17 	ldw	r2,-8(fp)
    4170:	1001703a 	wrctl	status,r2
    4174:	e037883a 	mov	sp,fp
    4178:	dfc00117 	ldw	ra,4(sp)
    417c:	df000017 	ldw	fp,0(sp)
    4180:	dec00204 	addi	sp,sp,8
    4184:	f800283a 	ret

00004188 <alt_avalon_timer_sc_init>:
    4188:	defff804 	addi	sp,sp,-32
    418c:	dfc00715 	stw	ra,28(sp)
    4190:	df000615 	stw	fp,24(sp)
    4194:	df000604 	addi	fp,sp,24
    4198:	e13ffc15 	stw	r4,-16(fp)
    419c:	e17ffd15 	stw	r5,-12(fp)
    41a0:	e1bffe15 	stw	r6,-8(fp)
    41a4:	e1ffff15 	stw	r7,-4(fp)
    41a8:	e0bfff17 	ldw	r2,-4(fp)
    41ac:	e0bffb15 	stw	r2,-20(fp)
    41b0:	00800034 	movhi	r2,0
    41b4:	109a2e04 	addi	r2,r2,26808
    41b8:	10800017 	ldw	r2,0(r2)
    41bc:	1000041e 	bne	r2,zero,41d0 <alt_avalon_timer_sc_init+0x48>
    41c0:	00800034 	movhi	r2,0
    41c4:	109a2e04 	addi	r2,r2,26808
    41c8:	e0fffb17 	ldw	r3,-20(fp)
    41cc:	10c00015 	stw	r3,0(r2)
    41d0:	e0bffc17 	ldw	r2,-16(fp)
    41d4:	10800104 	addi	r2,r2,4
    41d8:	00c001c4 	movi	r3,7
    41dc:	10c00035 	stwio	r3,0(r2)
    41e0:	d8000015 	stw	zero,0(sp)
    41e4:	e13ffd17 	ldw	r4,-12(fp)
    41e8:	e17ffe17 	ldw	r5,-8(fp)
    41ec:	01800034 	movhi	r6,0
    41f0:	31904504 	addi	r6,r6,16660
    41f4:	e1fffc17 	ldw	r7,-16(fp)
    41f8:	0003a840 	call	3a84 <alt_ic_isr_register>
    41fc:	e037883a 	mov	sp,fp
    4200:	dfc00117 	ldw	ra,4(sp)
    4204:	df000017 	ldw	fp,0(sp)
    4208:	dec00204 	addi	sp,sp,8
    420c:	f800283a 	ret

00004210 <altera_avalon_uart_read_fd>:
    4210:	defffa04 	addi	sp,sp,-24
    4214:	dfc00515 	stw	ra,20(sp)
    4218:	df000415 	stw	fp,16(sp)
    421c:	df000404 	addi	fp,sp,16
    4220:	e13ffd15 	stw	r4,-12(fp)
    4224:	e17ffe15 	stw	r5,-8(fp)
    4228:	e1bfff15 	stw	r6,-4(fp)
    422c:	e0bffd17 	ldw	r2,-12(fp)
    4230:	10800017 	ldw	r2,0(r2)
    4234:	e0bffc15 	stw	r2,-16(fp)
    4238:	e0bffc17 	ldw	r2,-16(fp)
    423c:	10c00a04 	addi	r3,r2,40
    4240:	e0bffd17 	ldw	r2,-12(fp)
    4244:	10800217 	ldw	r2,8(r2)
    4248:	1809883a 	mov	r4,r3
    424c:	e17ffe17 	ldw	r5,-8(fp)
    4250:	e1bfff17 	ldw	r6,-4(fp)
    4254:	100f883a 	mov	r7,r2
    4258:	00047180 	call	4718 <altera_avalon_uart_read>
    425c:	e037883a 	mov	sp,fp
    4260:	dfc00117 	ldw	ra,4(sp)
    4264:	df000017 	ldw	fp,0(sp)
    4268:	dec00204 	addi	sp,sp,8
    426c:	f800283a 	ret

00004270 <altera_avalon_uart_write_fd>:
    4270:	defffa04 	addi	sp,sp,-24
    4274:	dfc00515 	stw	ra,20(sp)
    4278:	df000415 	stw	fp,16(sp)
    427c:	df000404 	addi	fp,sp,16
    4280:	e13ffd15 	stw	r4,-12(fp)
    4284:	e17ffe15 	stw	r5,-8(fp)
    4288:	e1bfff15 	stw	r6,-4(fp)
    428c:	e0bffd17 	ldw	r2,-12(fp)
    4290:	10800017 	ldw	r2,0(r2)
    4294:	e0bffc15 	stw	r2,-16(fp)
    4298:	e0bffc17 	ldw	r2,-16(fp)
    429c:	10c00a04 	addi	r3,r2,40
    42a0:	e0bffd17 	ldw	r2,-12(fp)
    42a4:	10800217 	ldw	r2,8(r2)
    42a8:	1809883a 	mov	r4,r3
    42ac:	e17ffe17 	ldw	r5,-8(fp)
    42b0:	e1bfff17 	ldw	r6,-4(fp)
    42b4:	100f883a 	mov	r7,r2
    42b8:	00049480 	call	4948 <altera_avalon_uart_write>
    42bc:	e037883a 	mov	sp,fp
    42c0:	dfc00117 	ldw	ra,4(sp)
    42c4:	df000017 	ldw	fp,0(sp)
    42c8:	dec00204 	addi	sp,sp,8
    42cc:	f800283a 	ret

000042d0 <altera_avalon_uart_close_fd>:
    42d0:	defffc04 	addi	sp,sp,-16
    42d4:	dfc00315 	stw	ra,12(sp)
    42d8:	df000215 	stw	fp,8(sp)
    42dc:	df000204 	addi	fp,sp,8
    42e0:	e13fff15 	stw	r4,-4(fp)
    42e4:	e0bfff17 	ldw	r2,-4(fp)
    42e8:	10800017 	ldw	r2,0(r2)
    42ec:	e0bffe15 	stw	r2,-8(fp)
    42f0:	e0bffe17 	ldw	r2,-8(fp)
    42f4:	10c00a04 	addi	r3,r2,40
    42f8:	e0bfff17 	ldw	r2,-4(fp)
    42fc:	10800217 	ldw	r2,8(r2)
    4300:	1809883a 	mov	r4,r3
    4304:	100b883a 	mov	r5,r2
    4308:	00046740 	call	4674 <altera_avalon_uart_close>
    430c:	e037883a 	mov	sp,fp
    4310:	dfc00117 	ldw	ra,4(sp)
    4314:	df000017 	ldw	fp,0(sp)
    4318:	dec00204 	addi	sp,sp,8
    431c:	f800283a 	ret

00004320 <altera_avalon_uart_init>:
    4320:	defff804 	addi	sp,sp,-32
    4324:	dfc00715 	stw	ra,28(sp)
    4328:	df000615 	stw	fp,24(sp)
    432c:	df000604 	addi	fp,sp,24
    4330:	e13ffd15 	stw	r4,-12(fp)
    4334:	e17ffe15 	stw	r5,-8(fp)
    4338:	e1bfff15 	stw	r6,-4(fp)
    433c:	e0bffd17 	ldw	r2,-12(fp)
    4340:	10800017 	ldw	r2,0(r2)
    4344:	e0bffb15 	stw	r2,-20(fp)
    4348:	0005883a 	mov	r2,zero
    434c:	1000041e 	bne	r2,zero,4360 <altera_avalon_uart_init+0x40>
    4350:	0005883a 	mov	r2,zero
    4354:	1000021e 	bne	r2,zero,4360 <altera_avalon_uart_init+0x40>
    4358:	0005883a 	mov	r2,zero
    435c:	10000226 	beq	r2,zero,4368 <altera_avalon_uart_init+0x48>
    4360:	00800044 	movi	r2,1
    4364:	00000106 	br	436c <altera_avalon_uart_init+0x4c>
    4368:	0005883a 	mov	r2,zero
    436c:	e0bffc15 	stw	r2,-16(fp)
    4370:	e0bffc17 	ldw	r2,-16(fp)
    4374:	10000f1e 	bne	r2,zero,43b4 <altera_avalon_uart_init+0x94>
    4378:	e0bffd17 	ldw	r2,-12(fp)
    437c:	00c32004 	movi	r3,3200
    4380:	10c00115 	stw	r3,4(r2)
    4384:	e0bffb17 	ldw	r2,-20(fp)
    4388:	10800304 	addi	r2,r2,12
    438c:	e0fffd17 	ldw	r3,-12(fp)
    4390:	18c00117 	ldw	r3,4(r3)
    4394:	10c00035 	stwio	r3,0(r2)
    4398:	d8000015 	stw	zero,0(sp)
    439c:	e13ffe17 	ldw	r4,-8(fp)
    43a0:	e17fff17 	ldw	r5,-4(fp)
    43a4:	01800034 	movhi	r6,0
    43a8:	3190f204 	addi	r6,r6,17352
    43ac:	e1fffd17 	ldw	r7,-12(fp)
    43b0:	0003a840 	call	3a84 <alt_ic_isr_register>
    43b4:	e037883a 	mov	sp,fp
    43b8:	dfc00117 	ldw	ra,4(sp)
    43bc:	df000017 	ldw	fp,0(sp)
    43c0:	dec00204 	addi	sp,sp,8
    43c4:	f800283a 	ret

000043c8 <altera_avalon_uart_irq>:
    43c8:	defffa04 	addi	sp,sp,-24
    43cc:	dfc00515 	stw	ra,20(sp)
    43d0:	df000415 	stw	fp,16(sp)
    43d4:	df000404 	addi	fp,sp,16
    43d8:	e13fff15 	stw	r4,-4(fp)
    43dc:	e0bfff17 	ldw	r2,-4(fp)
    43e0:	e0bffc15 	stw	r2,-16(fp)
    43e4:	e0bffc17 	ldw	r2,-16(fp)
    43e8:	10800017 	ldw	r2,0(r2)
    43ec:	e0bffd15 	stw	r2,-12(fp)
    43f0:	e0bffd17 	ldw	r2,-12(fp)
    43f4:	10800204 	addi	r2,r2,8
    43f8:	10800037 	ldwio	r2,0(r2)
    43fc:	e0bffe15 	stw	r2,-8(fp)
    4400:	e0bffd17 	ldw	r2,-12(fp)
    4404:	10800204 	addi	r2,r2,8
    4408:	0007883a 	mov	r3,zero
    440c:	10c00035 	stwio	r3,0(r2)
    4410:	e0bffd17 	ldw	r2,-12(fp)
    4414:	10800204 	addi	r2,r2,8
    4418:	10800037 	ldwio	r2,0(r2)
    441c:	e0bffe17 	ldw	r2,-8(fp)
    4420:	1080200c 	andi	r2,r2,128
    4424:	10000326 	beq	r2,zero,4434 <altera_avalon_uart_irq+0x6c>
    4428:	e13ffc17 	ldw	r4,-16(fp)
    442c:	e17ffe17 	ldw	r5,-8(fp)
    4430:	00044600 	call	4460 <altera_avalon_uart_rxirq>
    4434:	e0bffe17 	ldw	r2,-8(fp)
    4438:	1081100c 	andi	r2,r2,1088
    443c:	10000326 	beq	r2,zero,444c <altera_avalon_uart_irq+0x84>
    4440:	e13ffc17 	ldw	r4,-16(fp)
    4444:	e17ffe17 	ldw	r5,-8(fp)
    4448:	00045380 	call	4538 <altera_avalon_uart_txirq>
    444c:	e037883a 	mov	sp,fp
    4450:	dfc00117 	ldw	ra,4(sp)
    4454:	df000017 	ldw	fp,0(sp)
    4458:	dec00204 	addi	sp,sp,8
    445c:	f800283a 	ret

00004460 <altera_avalon_uart_rxirq>:
    4460:	defffc04 	addi	sp,sp,-16
    4464:	df000315 	stw	fp,12(sp)
    4468:	df000304 	addi	fp,sp,12
    446c:	e13ffe15 	stw	r4,-8(fp)
    4470:	e17fff15 	stw	r5,-4(fp)
    4474:	e0bfff17 	ldw	r2,-4(fp)
    4478:	108000cc 	andi	r2,r2,3
    447c:	1000291e 	bne	r2,zero,4524 <altera_avalon_uart_rxirq+0xc4>
    4480:	e0bffe17 	ldw	r2,-8(fp)
    4484:	10800317 	ldw	r2,12(r2)
    4488:	e0bffe17 	ldw	r2,-8(fp)
    448c:	10800317 	ldw	r2,12(r2)
    4490:	10800044 	addi	r2,r2,1
    4494:	10800fcc 	andi	r2,r2,63
    4498:	e0bffd15 	stw	r2,-12(fp)
    449c:	e0bffe17 	ldw	r2,-8(fp)
    44a0:	10800317 	ldw	r2,12(r2)
    44a4:	e0fffe17 	ldw	r3,-8(fp)
    44a8:	18c00017 	ldw	r3,0(r3)
    44ac:	18c00037 	ldwio	r3,0(r3)
    44b0:	e13ffe17 	ldw	r4,-8(fp)
    44b4:	2085883a 	add	r2,r4,r2
    44b8:	10800704 	addi	r2,r2,28
    44bc:	10c00005 	stb	r3,0(r2)
    44c0:	e0bffe17 	ldw	r2,-8(fp)
    44c4:	e0fffd17 	ldw	r3,-12(fp)
    44c8:	10c00315 	stw	r3,12(r2)
    44cc:	e0bffe17 	ldw	r2,-8(fp)
    44d0:	10800317 	ldw	r2,12(r2)
    44d4:	10800044 	addi	r2,r2,1
    44d8:	10800fcc 	andi	r2,r2,63
    44dc:	e0bffd15 	stw	r2,-12(fp)
    44e0:	e0bffe17 	ldw	r2,-8(fp)
    44e4:	10c00217 	ldw	r3,8(r2)
    44e8:	e0bffd17 	ldw	r2,-12(fp)
    44ec:	18800e1e 	bne	r3,r2,4528 <altera_avalon_uart_rxirq+0xc8>
    44f0:	e0bffe17 	ldw	r2,-8(fp)
    44f4:	10c00117 	ldw	r3,4(r2)
    44f8:	00bfdfc4 	movi	r2,-129
    44fc:	1886703a 	and	r3,r3,r2
    4500:	e0bffe17 	ldw	r2,-8(fp)
    4504:	10c00115 	stw	r3,4(r2)
    4508:	e0bffe17 	ldw	r2,-8(fp)
    450c:	10800017 	ldw	r2,0(r2)
    4510:	10800304 	addi	r2,r2,12
    4514:	e0fffe17 	ldw	r3,-8(fp)
    4518:	18c00117 	ldw	r3,4(r3)
    451c:	10c00035 	stwio	r3,0(r2)
    4520:	00000106 	br	4528 <altera_avalon_uart_rxirq+0xc8>
    4524:	0001883a 	nop
    4528:	e037883a 	mov	sp,fp
    452c:	df000017 	ldw	fp,0(sp)
    4530:	dec00104 	addi	sp,sp,4
    4534:	f800283a 	ret

00004538 <altera_avalon_uart_txirq>:
    4538:	defffd04 	addi	sp,sp,-12
    453c:	df000215 	stw	fp,8(sp)
    4540:	df000204 	addi	fp,sp,8
    4544:	e13ffe15 	stw	r4,-8(fp)
    4548:	e17fff15 	stw	r5,-4(fp)
    454c:	e0bffe17 	ldw	r2,-8(fp)
    4550:	10c00417 	ldw	r3,16(r2)
    4554:	e0bffe17 	ldw	r2,-8(fp)
    4558:	10800517 	ldw	r2,20(r2)
    455c:	18803026 	beq	r3,r2,4620 <altera_avalon_uart_txirq+0xe8>
    4560:	e0bffe17 	ldw	r2,-8(fp)
    4564:	10800617 	ldw	r2,24(r2)
    4568:	1080008c 	andi	r2,r2,2
    456c:	10000326 	beq	r2,zero,457c <altera_avalon_uart_txirq+0x44>
    4570:	e0bfff17 	ldw	r2,-4(fp)
    4574:	1082000c 	andi	r2,r2,2048
    4578:	10001b26 	beq	r2,zero,45e8 <altera_avalon_uart_txirq+0xb0>
    457c:	e0bffe17 	ldw	r2,-8(fp)
    4580:	10800417 	ldw	r2,16(r2)
    4584:	e0bffe17 	ldw	r2,-8(fp)
    4588:	10800017 	ldw	r2,0(r2)
    458c:	10800104 	addi	r2,r2,4
    4590:	e0fffe17 	ldw	r3,-8(fp)
    4594:	18c00417 	ldw	r3,16(r3)
    4598:	e13ffe17 	ldw	r4,-8(fp)
    459c:	20c7883a 	add	r3,r4,r3
    45a0:	18c01704 	addi	r3,r3,92
    45a4:	18c00003 	ldbu	r3,0(r3)
    45a8:	18c03fcc 	andi	r3,r3,255
    45ac:	10c00035 	stwio	r3,0(r2)
    45b0:	e0bffe17 	ldw	r2,-8(fp)
    45b4:	10800417 	ldw	r2,16(r2)
    45b8:	10800044 	addi	r2,r2,1
    45bc:	e0fffe17 	ldw	r3,-8(fp)
    45c0:	18800415 	stw	r2,16(r3)
    45c4:	10c00fcc 	andi	r3,r2,63
    45c8:	e0bffe17 	ldw	r2,-8(fp)
    45cc:	10c00415 	stw	r3,16(r2)
    45d0:	e0bffe17 	ldw	r2,-8(fp)
    45d4:	10800117 	ldw	r2,4(r2)
    45d8:	10c01014 	ori	r3,r2,64
    45dc:	e0bffe17 	ldw	r2,-8(fp)
